
stm32f401ccu6_xpt2046_ili9341.elf:     file format elf32-littlearm

Sections:
Idx Name          Size      VMA       LMA       File off  Algn
  0 .isr_vector   00000194  08000000  08000000  00010000  2**0
                  CONTENTS, ALLOC, LOAD, READONLY, DATA
  1 .text         00004f98  080001a0  080001a0  000101a0  2**4
                  CONTENTS, ALLOC, LOAD, READONLY, CODE
  2 .rodata       00000f54  08005138  08005138  00015138  2**2
                  CONTENTS, ALLOC, LOAD, READONLY, DATA
  3 .ARM.extab    00000000  0800608c  0800608c  0002012c  2**0
                  CONTENTS
  4 .ARM          00000008  0800608c  0800608c  0001608c  2**2
                  CONTENTS, ALLOC, LOAD, READONLY, DATA
  5 .preinit_array 00000000  08006094  08006094  0002012c  2**0
                  CONTENTS, ALLOC, LOAD, DATA
  6 .init_array   00000004  08006094  08006094  00016094  2**2
                  CONTENTS, ALLOC, LOAD, DATA
  7 .fini_array   00000004  08006098  08006098  00016098  2**2
                  CONTENTS, ALLOC, LOAD, DATA
  8 .data         0000012c  20000000  0800609c  00020000  2**2
                  CONTENTS, ALLOC, LOAD, DATA
  9 .bss          0000003c  2000012c  080061c8  0002012c  2**2
                  ALLOC
 10 ._user_heap_stack 00000600  20000168  080061c8  00020168  2**0
                  ALLOC
 11 .ARM.attributes 00000030  00000000  00000000  0002012c  2**0
                  CONTENTS, READONLY
 12 .comment      00000050  00000000  00000000  0002015c  2**0
                  CONTENTS, READONLY
 13 .debug_frame  00000ae4  00000000  00000000  000201ac  2**2
                  CONTENTS, READONLY, DEBUGGING, OCTETS

Disassembly of section .text:

080001a0 <__do_global_dtors_aux>:
 80001a0:	b510      	push	{r4, lr}
 80001a2:	4c05      	ldr	r4, [pc, #20]	; (80001b8 <__do_global_dtors_aux+0x18>)
 80001a4:	7823      	ldrb	r3, [r4, #0]
 80001a6:	b933      	cbnz	r3, 80001b6 <__do_global_dtors_aux+0x16>
 80001a8:	4b04      	ldr	r3, [pc, #16]	; (80001bc <__do_global_dtors_aux+0x1c>)
 80001aa:	b113      	cbz	r3, 80001b2 <__do_global_dtors_aux+0x12>
 80001ac:	4804      	ldr	r0, [pc, #16]	; (80001c0 <__do_global_dtors_aux+0x20>)
 80001ae:	f3af 8000 	nop.w
 80001b2:	2301      	movs	r3, #1
 80001b4:	7023      	strb	r3, [r4, #0]
 80001b6:	bd10      	pop	{r4, pc}
 80001b8:	2000012c 	.word	0x2000012c
 80001bc:	00000000 	.word	0x00000000
 80001c0:	08005120 	.word	0x08005120

080001c4 <frame_dummy>:
 80001c4:	b508      	push	{r3, lr}
 80001c6:	4b03      	ldr	r3, [pc, #12]	; (80001d4 <frame_dummy+0x10>)
 80001c8:	b11b      	cbz	r3, 80001d2 <frame_dummy+0xe>
 80001ca:	4903      	ldr	r1, [pc, #12]	; (80001d8 <frame_dummy+0x14>)
 80001cc:	4803      	ldr	r0, [pc, #12]	; (80001dc <frame_dummy+0x18>)
 80001ce:	f3af 8000 	nop.w
 80001d2:	bd08      	pop	{r3, pc}
 80001d4:	00000000 	.word	0x00000000
 80001d8:	20000130 	.word	0x20000130
 80001dc:	08005120 	.word	0x08005120

080001e0 <strlen>:
 80001e0:	4603      	mov	r3, r0
 80001e2:	f813 2b01 	ldrb.w	r2, [r3], #1
 80001e6:	2a00      	cmp	r2, #0
 80001e8:	d1fb      	bne.n	80001e2 <strlen+0x2>
 80001ea:	1a18      	subs	r0, r3, r0
 80001ec:	3801      	subs	r0, #1
 80001ee:	4770      	bx	lr

080001f0 <memchr>:
 80001f0:	f001 01ff 	and.w	r1, r1, #255	; 0xff
 80001f4:	2a10      	cmp	r2, #16
 80001f6:	db2b      	blt.n	8000250 <memchr+0x60>
 80001f8:	f010 0f07 	tst.w	r0, #7
 80001fc:	d008      	beq.n	8000210 <memchr+0x20>
 80001fe:	f810 3b01 	ldrb.w	r3, [r0], #1
 8000202:	3a01      	subs	r2, #1
 8000204:	428b      	cmp	r3, r1
 8000206:	d02d      	beq.n	8000264 <memchr+0x74>
 8000208:	f010 0f07 	tst.w	r0, #7
 800020c:	b342      	cbz	r2, 8000260 <memchr+0x70>
 800020e:	d1f6      	bne.n	80001fe <memchr+0xe>
 8000210:	b4f0      	push	{r4, r5, r6, r7}
 8000212:	ea41 2101 	orr.w	r1, r1, r1, lsl #8
 8000216:	ea41 4101 	orr.w	r1, r1, r1, lsl #16
 800021a:	f022 0407 	bic.w	r4, r2, #7
 800021e:	f07f 0700 	mvns.w	r7, #0
 8000222:	2300      	movs	r3, #0
 8000224:	e8f0 5602 	ldrd	r5, r6, [r0], #8
 8000228:	3c08      	subs	r4, #8
 800022a:	ea85 0501 	eor.w	r5, r5, r1
 800022e:	ea86 0601 	eor.w	r6, r6, r1
 8000232:	fa85 f547 	uadd8	r5, r5, r7
 8000236:	faa3 f587 	sel	r5, r3, r7
 800023a:	fa86 f647 	uadd8	r6, r6, r7
 800023e:	faa5 f687 	sel	r6, r5, r7
 8000242:	b98e      	cbnz	r6, 8000268 <memchr+0x78>
 8000244:	d1ee      	bne.n	8000224 <memchr+0x34>
 8000246:	bcf0      	pop	{r4, r5, r6, r7}
 8000248:	f001 01ff 	and.w	r1, r1, #255	; 0xff
 800024c:	f002 0207 	and.w	r2, r2, #7
 8000250:	b132      	cbz	r2, 8000260 <memchr+0x70>
 8000252:	f810 3b01 	ldrb.w	r3, [r0], #1
 8000256:	3a01      	subs	r2, #1
 8000258:	ea83 0301 	eor.w	r3, r3, r1
 800025c:	b113      	cbz	r3, 8000264 <memchr+0x74>
 800025e:	d1f8      	bne.n	8000252 <memchr+0x62>
 8000260:	2000      	movs	r0, #0
 8000262:	4770      	bx	lr
 8000264:	3801      	subs	r0, #1
 8000266:	4770      	bx	lr
 8000268:	2d00      	cmp	r5, #0
 800026a:	bf06      	itte	eq
 800026c:	4635      	moveq	r5, r6
 800026e:	3803      	subeq	r0, #3
 8000270:	3807      	subne	r0, #7
 8000272:	f015 0f01 	tst.w	r5, #1
 8000276:	d107      	bne.n	8000288 <memchr+0x98>
 8000278:	3001      	adds	r0, #1
 800027a:	f415 7f80 	tst.w	r5, #256	; 0x100
 800027e:	bf02      	ittt	eq
 8000280:	3001      	addeq	r0, #1
 8000282:	f415 3fc0 	tsteq.w	r5, #98304	; 0x18000
 8000286:	3001      	addeq	r0, #1
 8000288:	bcf0      	pop	{r4, r5, r6, r7}
 800028a:	3801      	subs	r0, #1
 800028c:	4770      	bx	lr
 800028e:	bf00      	nop

08000290 <__aeabi_ldivmod>:
 8000290:	b97b      	cbnz	r3, 80002b2 <__aeabi_ldivmod+0x22>
 8000292:	b972      	cbnz	r2, 80002b2 <__aeabi_ldivmod+0x22>
 8000294:	2900      	cmp	r1, #0
 8000296:	bfbe      	ittt	lt
 8000298:	2000      	movlt	r0, #0
 800029a:	f04f 4100 	movlt.w	r1, #2147483648	; 0x80000000
 800029e:	e006      	blt.n	80002ae <__aeabi_ldivmod+0x1e>
 80002a0:	bf08      	it	eq
 80002a2:	2800      	cmpeq	r0, #0
 80002a4:	bf1c      	itt	ne
 80002a6:	f06f 4100 	mvnne.w	r1, #2147483648	; 0x80000000
 80002aa:	f04f 30ff 	movne.w	r0, #4294967295
 80002ae:	f000 b9a7 	b.w	8000600 <__aeabi_idiv0>
 80002b2:	f1ad 0c08 	sub.w	ip, sp, #8
 80002b6:	e96d ce04 	strd	ip, lr, [sp, #-16]!
 80002ba:	2900      	cmp	r1, #0
 80002bc:	db09      	blt.n	80002d2 <__aeabi_ldivmod+0x42>
 80002be:	2b00      	cmp	r3, #0
 80002c0:	db1a      	blt.n	80002f8 <__aeabi_ldivmod+0x68>
 80002c2:	f000 f835 	bl	8000330 <__udivmoddi4>
 80002c6:	f8dd e004 	ldr.w	lr, [sp, #4]
 80002ca:	e9dd 2302 	ldrd	r2, r3, [sp, #8]
 80002ce:	b004      	add	sp, #16
 80002d0:	4770      	bx	lr
 80002d2:	4240      	negs	r0, r0
 80002d4:	eb61 0141 	sbc.w	r1, r1, r1, lsl #1
 80002d8:	2b00      	cmp	r3, #0
 80002da:	db1b      	blt.n	8000314 <__aeabi_ldivmod+0x84>
 80002dc:	f000 f828 	bl	8000330 <__udivmoddi4>
 80002e0:	f8dd e004 	ldr.w	lr, [sp, #4]
 80002e4:	e9dd 2302 	ldrd	r2, r3, [sp, #8]
 80002e8:	b004      	add	sp, #16
 80002ea:	4240      	negs	r0, r0
 80002ec:	eb61 0141 	sbc.w	r1, r1, r1, lsl #1
 80002f0:	4252      	negs	r2, r2
 80002f2:	eb63 0343 	sbc.w	r3, r3, r3, lsl #1
 80002f6:	4770      	bx	lr
 80002f8:	4252      	negs	r2, r2
 80002fa:	eb63 0343 	sbc.w	r3, r3, r3, lsl #1
 80002fe:	f000 f817 	bl	8000330 <__udivmoddi4>
 8000302:	f8dd e004 	ldr.w	lr, [sp, #4]
 8000306:	e9dd 2302 	ldrd	r2, r3, [sp, #8]
 800030a:	b004      	add	sp, #16
 800030c:	4240      	negs	r0, r0
 800030e:	eb61 0141 	sbc.w	r1, r1, r1, lsl #1
 8000312:	4770      	bx	lr
 8000314:	4252      	negs	r2, r2
 8000316:	eb63 0343 	sbc.w	r3, r3, r3, lsl #1
 800031a:	f000 f809 	bl	8000330 <__udivmoddi4>
 800031e:	f8dd e004 	ldr.w	lr, [sp, #4]
 8000322:	e9dd 2302 	ldrd	r2, r3, [sp, #8]
 8000326:	b004      	add	sp, #16
 8000328:	4252      	negs	r2, r2
 800032a:	eb63 0343 	sbc.w	r3, r3, r3, lsl #1
 800032e:	4770      	bx	lr

08000330 <__udivmoddi4>:
 8000330:	e92d 47f0 	stmdb	sp!, {r4, r5, r6, r7, r8, r9, sl, lr}
 8000334:	9d08      	ldr	r5, [sp, #32]
 8000336:	4604      	mov	r4, r0
 8000338:	468e      	mov	lr, r1
 800033a:	2b00      	cmp	r3, #0
 800033c:	d14d      	bne.n	80003da <__udivmoddi4+0xaa>
 800033e:	428a      	cmp	r2, r1
 8000340:	4694      	mov	ip, r2
 8000342:	d969      	bls.n	8000418 <__udivmoddi4+0xe8>
 8000344:	fab2 f282 	clz	r2, r2
 8000348:	b152      	cbz	r2, 8000360 <__udivmoddi4+0x30>
 800034a:	fa01 f302 	lsl.w	r3, r1, r2
 800034e:	f1c2 0120 	rsb	r1, r2, #32
 8000352:	fa20 f101 	lsr.w	r1, r0, r1
 8000356:	fa0c fc02 	lsl.w	ip, ip, r2
 800035a:	ea41 0e03 	orr.w	lr, r1, r3
 800035e:	4094      	lsls	r4, r2
 8000360:	ea4f 481c 	mov.w	r8, ip, lsr #16
 8000364:	0c21      	lsrs	r1, r4, #16
 8000366:	fbbe f6f8 	udiv	r6, lr, r8
 800036a:	fa1f f78c 	uxth.w	r7, ip
 800036e:	fb08 e316 	mls	r3, r8, r6, lr
 8000372:	ea41 4303 	orr.w	r3, r1, r3, lsl #16
 8000376:	fb06 f107 	mul.w	r1, r6, r7
 800037a:	4299      	cmp	r1, r3
 800037c:	d90a      	bls.n	8000394 <__udivmoddi4+0x64>
 800037e:	eb1c 0303 	adds.w	r3, ip, r3
 8000382:	f106 30ff 	add.w	r0, r6, #4294967295
 8000386:	f080 811f 	bcs.w	80005c8 <__udivmoddi4+0x298>
 800038a:	4299      	cmp	r1, r3
 800038c:	f240 811c 	bls.w	80005c8 <__udivmoddi4+0x298>
 8000390:	3e02      	subs	r6, #2
 8000392:	4463      	add	r3, ip
 8000394:	1a5b      	subs	r3, r3, r1
 8000396:	b2a4      	uxth	r4, r4
 8000398:	fbb3 f0f8 	udiv	r0, r3, r8
 800039c:	fb08 3310 	mls	r3, r8, r0, r3
 80003a0:	ea44 4403 	orr.w	r4, r4, r3, lsl #16
 80003a4:	fb00 f707 	mul.w	r7, r0, r7
 80003a8:	42a7      	cmp	r7, r4
 80003aa:	d90a      	bls.n	80003c2 <__udivmoddi4+0x92>
 80003ac:	eb1c 0404 	adds.w	r4, ip, r4
 80003b0:	f100 33ff 	add.w	r3, r0, #4294967295
 80003b4:	f080 810a 	bcs.w	80005cc <__udivmoddi4+0x29c>
 80003b8:	42a7      	cmp	r7, r4
 80003ba:	f240 8107 	bls.w	80005cc <__udivmoddi4+0x29c>
 80003be:	4464      	add	r4, ip
 80003c0:	3802      	subs	r0, #2
 80003c2:	ea40 4006 	orr.w	r0, r0, r6, lsl #16
 80003c6:	1be4      	subs	r4, r4, r7
 80003c8:	2600      	movs	r6, #0
 80003ca:	b11d      	cbz	r5, 80003d4 <__udivmoddi4+0xa4>
 80003cc:	40d4      	lsrs	r4, r2
 80003ce:	2300      	movs	r3, #0
 80003d0:	e9c5 4300 	strd	r4, r3, [r5]
 80003d4:	4631      	mov	r1, r6
 80003d6:	e8bd 87f0 	ldmia.w	sp!, {r4, r5, r6, r7, r8, r9, sl, pc}
 80003da:	428b      	cmp	r3, r1
 80003dc:	d909      	bls.n	80003f2 <__udivmoddi4+0xc2>
 80003de:	2d00      	cmp	r5, #0
 80003e0:	f000 80ef 	beq.w	80005c2 <__udivmoddi4+0x292>
 80003e4:	2600      	movs	r6, #0
 80003e6:	e9c5 0100 	strd	r0, r1, [r5]
 80003ea:	4630      	mov	r0, r6
 80003ec:	4631      	mov	r1, r6
 80003ee:	e8bd 87f0 	ldmia.w	sp!, {r4, r5, r6, r7, r8, r9, sl, pc}
 80003f2:	fab3 f683 	clz	r6, r3
 80003f6:	2e00      	cmp	r6, #0
 80003f8:	d14a      	bne.n	8000490 <__udivmoddi4+0x160>
 80003fa:	428b      	cmp	r3, r1
 80003fc:	d302      	bcc.n	8000404 <__udivmoddi4+0xd4>
 80003fe:	4282      	cmp	r2, r0
 8000400:	f200 80f9 	bhi.w	80005f6 <__udivmoddi4+0x2c6>
 8000404:	1a84      	subs	r4, r0, r2
 8000406:	eb61 0303 	sbc.w	r3, r1, r3
 800040a:	2001      	movs	r0, #1
 800040c:	469e      	mov	lr, r3
 800040e:	2d00      	cmp	r5, #0
 8000410:	d0e0      	beq.n	80003d4 <__udivmoddi4+0xa4>
 8000412:	e9c5 4e00 	strd	r4, lr, [r5]
 8000416:	e7dd      	b.n	80003d4 <__udivmoddi4+0xa4>
 8000418:	b902      	cbnz	r2, 800041c <__udivmoddi4+0xec>
 800041a:	deff      	udf	#255	; 0xff
 800041c:	fab2 f282 	clz	r2, r2
 8000420:	2a00      	cmp	r2, #0
 8000422:	f040 8092 	bne.w	800054a <__udivmoddi4+0x21a>
 8000426:	eba1 010c 	sub.w	r1, r1, ip
 800042a:	ea4f 471c 	mov.w	r7, ip, lsr #16
 800042e:	fa1f fe8c 	uxth.w	lr, ip
 8000432:	2601      	movs	r6, #1
 8000434:	0c20      	lsrs	r0, r4, #16
 8000436:	fbb1 f3f7 	udiv	r3, r1, r7
 800043a:	fb07 1113 	mls	r1, r7, r3, r1
 800043e:	ea40 4101 	orr.w	r1, r0, r1, lsl #16
 8000442:	fb0e f003 	mul.w	r0, lr, r3
 8000446:	4288      	cmp	r0, r1
 8000448:	d908      	bls.n	800045c <__udivmoddi4+0x12c>
 800044a:	eb1c 0101 	adds.w	r1, ip, r1
 800044e:	f103 38ff 	add.w	r8, r3, #4294967295
 8000452:	d202      	bcs.n	800045a <__udivmoddi4+0x12a>
 8000454:	4288      	cmp	r0, r1
 8000456:	f200 80cb 	bhi.w	80005f0 <__udivmoddi4+0x2c0>
 800045a:	4643      	mov	r3, r8
 800045c:	1a09      	subs	r1, r1, r0
 800045e:	b2a4      	uxth	r4, r4
 8000460:	fbb1 f0f7 	udiv	r0, r1, r7
 8000464:	fb07 1110 	mls	r1, r7, r0, r1
 8000468:	ea44 4401 	orr.w	r4, r4, r1, lsl #16
 800046c:	fb0e fe00 	mul.w	lr, lr, r0
 8000470:	45a6      	cmp	lr, r4
 8000472:	d908      	bls.n	8000486 <__udivmoddi4+0x156>
 8000474:	eb1c 0404 	adds.w	r4, ip, r4
 8000478:	f100 31ff 	add.w	r1, r0, #4294967295
 800047c:	d202      	bcs.n	8000484 <__udivmoddi4+0x154>
 800047e:	45a6      	cmp	lr, r4
 8000480:	f200 80bb 	bhi.w	80005fa <__udivmoddi4+0x2ca>
 8000484:	4608      	mov	r0, r1
 8000486:	eba4 040e 	sub.w	r4, r4, lr
 800048a:	ea40 4003 	orr.w	r0, r0, r3, lsl #16
 800048e:	e79c      	b.n	80003ca <__udivmoddi4+0x9a>
 8000490:	f1c6 0720 	rsb	r7, r6, #32
 8000494:	40b3      	lsls	r3, r6
 8000496:	fa22 fc07 	lsr.w	ip, r2, r7
 800049a:	ea4c 0c03 	orr.w	ip, ip, r3
 800049e:	fa20 f407 	lsr.w	r4, r0, r7
 80004a2:	fa01 f306 	lsl.w	r3, r1, r6
 80004a6:	431c      	orrs	r4, r3
 80004a8:	40f9      	lsrs	r1, r7
 80004aa:	ea4f 491c 	mov.w	r9, ip, lsr #16
 80004ae:	fa00 f306 	lsl.w	r3, r0, r6
 80004b2:	fbb1 f8f9 	udiv	r8, r1, r9
 80004b6:	0c20      	lsrs	r0, r4, #16
 80004b8:	fa1f fe8c 	uxth.w	lr, ip
 80004bc:	fb09 1118 	mls	r1, r9, r8, r1
 80004c0:	ea40 4101 	orr.w	r1, r0, r1, lsl #16
 80004c4:	fb08 f00e 	mul.w	r0, r8, lr
 80004c8:	4288      	cmp	r0, r1
 80004ca:	fa02 f206 	lsl.w	r2, r2, r6
 80004ce:	d90b      	bls.n	80004e8 <__udivmoddi4+0x1b8>
 80004d0:	eb1c 0101 	adds.w	r1, ip, r1
 80004d4:	f108 3aff 	add.w	sl, r8, #4294967295
 80004d8:	f080 8088 	bcs.w	80005ec <__udivmoddi4+0x2bc>
 80004dc:	4288      	cmp	r0, r1
 80004de:	f240 8085 	bls.w	80005ec <__udivmoddi4+0x2bc>
 80004e2:	f1a8 0802 	sub.w	r8, r8, #2
 80004e6:	4461      	add	r1, ip
 80004e8:	1a09      	subs	r1, r1, r0
 80004ea:	b2a4      	uxth	r4, r4
 80004ec:	fbb1 f0f9 	udiv	r0, r1, r9
 80004f0:	fb09 1110 	mls	r1, r9, r0, r1
 80004f4:	ea44 4101 	orr.w	r1, r4, r1, lsl #16
 80004f8:	fb00 fe0e 	mul.w	lr, r0, lr
 80004fc:	458e      	cmp	lr, r1
 80004fe:	d908      	bls.n	8000512 <__udivmoddi4+0x1e2>
 8000500:	eb1c 0101 	adds.w	r1, ip, r1
 8000504:	f100 34ff 	add.w	r4, r0, #4294967295
 8000508:	d26c      	bcs.n	80005e4 <__udivmoddi4+0x2b4>
 800050a:	458e      	cmp	lr, r1
 800050c:	d96a      	bls.n	80005e4 <__udivmoddi4+0x2b4>
 800050e:	3802      	subs	r0, #2
 8000510:	4461      	add	r1, ip
 8000512:	ea40 4008 	orr.w	r0, r0, r8, lsl #16
 8000516:	fba0 9402 	umull	r9, r4, r0, r2
 800051a:	eba1 010e 	sub.w	r1, r1, lr
 800051e:	42a1      	cmp	r1, r4
 8000520:	46c8      	mov	r8, r9
 8000522:	46a6      	mov	lr, r4
 8000524:	d356      	bcc.n	80005d4 <__udivmoddi4+0x2a4>
 8000526:	d053      	beq.n	80005d0 <__udivmoddi4+0x2a0>
 8000528:	b15d      	cbz	r5, 8000542 <__udivmoddi4+0x212>
 800052a:	ebb3 0208 	subs.w	r2, r3, r8
 800052e:	eb61 010e 	sbc.w	r1, r1, lr
 8000532:	fa01 f707 	lsl.w	r7, r1, r7
 8000536:	fa22 f306 	lsr.w	r3, r2, r6
 800053a:	40f1      	lsrs	r1, r6
 800053c:	431f      	orrs	r7, r3
 800053e:	e9c5 7100 	strd	r7, r1, [r5]
 8000542:	2600      	movs	r6, #0
 8000544:	4631      	mov	r1, r6
 8000546:	e8bd 87f0 	ldmia.w	sp!, {r4, r5, r6, r7, r8, r9, sl, pc}
 800054a:	f1c2 0320 	rsb	r3, r2, #32
 800054e:	40d8      	lsrs	r0, r3
 8000550:	fa0c fc02 	lsl.w	ip, ip, r2
 8000554:	fa21 f303 	lsr.w	r3, r1, r3
 8000558:	4091      	lsls	r1, r2
 800055a:	4301      	orrs	r1, r0
 800055c:	ea4f 471c 	mov.w	r7, ip, lsr #16
 8000560:	fa1f fe8c 	uxth.w	lr, ip
 8000564:	fbb3 f0f7 	udiv	r0, r3, r7
 8000568:	fb07 3610 	mls	r6, r7, r0, r3
 800056c:	0c0b      	lsrs	r3, r1, #16
 800056e:	ea43 4306 	orr.w	r3, r3, r6, lsl #16
 8000572:	fb00 f60e 	mul.w	r6, r0, lr
 8000576:	429e      	cmp	r6, r3
 8000578:	fa04 f402 	lsl.w	r4, r4, r2
 800057c:	d908      	bls.n	8000590 <__udivmoddi4+0x260>
 800057e:	eb1c 0303 	adds.w	r3, ip, r3
 8000582:	f100 38ff 	add.w	r8, r0, #4294967295
 8000586:	d22f      	bcs.n	80005e8 <__udivmoddi4+0x2b8>
 8000588:	429e      	cmp	r6, r3
 800058a:	d92d      	bls.n	80005e8 <__udivmoddi4+0x2b8>
 800058c:	3802      	subs	r0, #2
 800058e:	4463      	add	r3, ip
 8000590:	1b9b      	subs	r3, r3, r6
 8000592:	b289      	uxth	r1, r1
 8000594:	fbb3 f6f7 	udiv	r6, r3, r7
 8000598:	fb07 3316 	mls	r3, r7, r6, r3
 800059c:	ea41 4103 	orr.w	r1, r1, r3, lsl #16
 80005a0:	fb06 f30e 	mul.w	r3, r6, lr
 80005a4:	428b      	cmp	r3, r1
 80005a6:	d908      	bls.n	80005ba <__udivmoddi4+0x28a>
 80005a8:	eb1c 0101 	adds.w	r1, ip, r1
 80005ac:	f106 38ff 	add.w	r8, r6, #4294967295
 80005b0:	d216      	bcs.n	80005e0 <__udivmoddi4+0x2b0>
 80005b2:	428b      	cmp	r3, r1
 80005b4:	d914      	bls.n	80005e0 <__udivmoddi4+0x2b0>
 80005b6:	3e02      	subs	r6, #2
 80005b8:	4461      	add	r1, ip
 80005ba:	1ac9      	subs	r1, r1, r3
 80005bc:	ea46 4600 	orr.w	r6, r6, r0, lsl #16
 80005c0:	e738      	b.n	8000434 <__udivmoddi4+0x104>
 80005c2:	462e      	mov	r6, r5
 80005c4:	4628      	mov	r0, r5
 80005c6:	e705      	b.n	80003d4 <__udivmoddi4+0xa4>
 80005c8:	4606      	mov	r6, r0
 80005ca:	e6e3      	b.n	8000394 <__udivmoddi4+0x64>
 80005cc:	4618      	mov	r0, r3
 80005ce:	e6f8      	b.n	80003c2 <__udivmoddi4+0x92>
 80005d0:	454b      	cmp	r3, r9
 80005d2:	d2a9      	bcs.n	8000528 <__udivmoddi4+0x1f8>
 80005d4:	ebb9 0802 	subs.w	r8, r9, r2
 80005d8:	eb64 0e0c 	sbc.w	lr, r4, ip
 80005dc:	3801      	subs	r0, #1
 80005de:	e7a3      	b.n	8000528 <__udivmoddi4+0x1f8>
 80005e0:	4646      	mov	r6, r8
 80005e2:	e7ea      	b.n	80005ba <__udivmoddi4+0x28a>
 80005e4:	4620      	mov	r0, r4
 80005e6:	e794      	b.n	8000512 <__udivmoddi4+0x1e2>
 80005e8:	4640      	mov	r0, r8
 80005ea:	e7d1      	b.n	8000590 <__udivmoddi4+0x260>
 80005ec:	46d0      	mov	r8, sl
 80005ee:	e77b      	b.n	80004e8 <__udivmoddi4+0x1b8>
 80005f0:	3b02      	subs	r3, #2
 80005f2:	4461      	add	r1, ip
 80005f4:	e732      	b.n	800045c <__udivmoddi4+0x12c>
 80005f6:	4630      	mov	r0, r6
 80005f8:	e709      	b.n	800040e <__udivmoddi4+0xde>
 80005fa:	4464      	add	r4, ip
 80005fc:	3802      	subs	r0, #2
 80005fe:	e742      	b.n	8000486 <__udivmoddi4+0x156>

08000600 <__aeabi_idiv0>:
 8000600:	4770      	bx	lr
 8000602:	bf00      	nop

08000604 <SystemClock_Config>:
 8000604:	4a2c      	ldr	r2, [pc, #176]	; (80006b8 <SystemClock_Config+0xb4>)
 8000606:	6813      	ldr	r3, [r2, #0]
 8000608:	f023 0307 	bic.w	r3, r3, #7
 800060c:	f043 0302 	orr.w	r3, r3, #2
 8000610:	b510      	push	{r4, lr}
 8000612:	6013      	str	r3, [r2, #0]
 8000614:	6813      	ldr	r3, [r2, #0]
 8000616:	f003 0307 	and.w	r3, r3, #7
 800061a:	2b02      	cmp	r3, #2
 800061c:	d1fa      	bne.n	8000614 <SystemClock_Config+0x10>
 800061e:	4927      	ldr	r1, [pc, #156]	; (80006bc <SystemClock_Config+0xb8>)
 8000620:	4b27      	ldr	r3, [pc, #156]	; (80006c0 <SystemClock_Config+0xbc>)
 8000622:	680a      	ldr	r2, [r1, #0]
 8000624:	f422 4240 	bic.w	r2, r2, #49152	; 0xc000
 8000628:	f442 4200 	orr.w	r2, r2, #32768	; 0x8000
 800062c:	600a      	str	r2, [r1, #0]
 800062e:	681a      	ldr	r2, [r3, #0]
 8000630:	f442 3280 	orr.w	r2, r2, #65536	; 0x10000
 8000634:	601a      	str	r2, [r3, #0]
 8000636:	681a      	ldr	r2, [r3, #0]
 8000638:	0392      	lsls	r2, r2, #14
 800063a:	d5fc      	bpl.n	8000636 <SystemClock_Config+0x32>
 800063c:	681a      	ldr	r2, [r3, #0]
 800063e:	4921      	ldr	r1, [pc, #132]	; (80006c4 <SystemClock_Config+0xc0>)
 8000640:	f442 2200 	orr.w	r2, r2, #524288	; 0x80000
 8000644:	601a      	str	r2, [r3, #0]
 8000646:	6858      	ldr	r0, [r3, #4]
 8000648:	4a1f      	ldr	r2, [pc, #124]	; (80006c8 <SystemClock_Config+0xc4>)
 800064a:	4001      	ands	r1, r0
 800064c:	430a      	orrs	r2, r1
 800064e:	605a      	str	r2, [r3, #4]
 8000650:	6859      	ldr	r1, [r3, #4]
 8000652:	4a1b      	ldr	r2, [pc, #108]	; (80006c0 <SystemClock_Config+0xbc>)
 8000654:	f421 3140 	bic.w	r1, r1, #196608	; 0x30000
 8000658:	6059      	str	r1, [r3, #4]
 800065a:	6819      	ldr	r1, [r3, #0]
 800065c:	f041 7180 	orr.w	r1, r1, #16777216	; 0x1000000
 8000660:	6019      	str	r1, [r3, #0]
 8000662:	6813      	ldr	r3, [r2, #0]
 8000664:	019b      	lsls	r3, r3, #6
 8000666:	d5fc      	bpl.n	8000662 <SystemClock_Config+0x5e>
 8000668:	6893      	ldr	r3, [r2, #8]
 800066a:	4c15      	ldr	r4, [pc, #84]	; (80006c0 <SystemClock_Config+0xbc>)
 800066c:	f023 03f0 	bic.w	r3, r3, #240	; 0xf0
 8000670:	6093      	str	r3, [r2, #8]
 8000672:	6893      	ldr	r3, [r2, #8]
 8000674:	f423 53e0 	bic.w	r3, r3, #7168	; 0x1c00
 8000678:	f443 5380 	orr.w	r3, r3, #4096	; 0x1000
 800067c:	6093      	str	r3, [r2, #8]
 800067e:	6893      	ldr	r3, [r2, #8]
 8000680:	f423 4360 	bic.w	r3, r3, #57344	; 0xe000
 8000684:	6093      	str	r3, [r2, #8]
 8000686:	6893      	ldr	r3, [r2, #8]
 8000688:	f023 0303 	bic.w	r3, r3, #3
 800068c:	f043 0302 	orr.w	r3, r3, #2
 8000690:	6093      	str	r3, [r2, #8]
 8000692:	68a3      	ldr	r3, [r4, #8]
 8000694:	f003 030c 	and.w	r3, r3, #12
 8000698:	2b08      	cmp	r3, #8
 800069a:	d1fa      	bne.n	8000692 <SystemClock_Config+0x8e>
 800069c:	480b      	ldr	r0, [pc, #44]	; (80006cc <SystemClock_Config+0xc8>)
 800069e:	f002 f8eb 	bl	8002878 <LL_Init1msTick>
 80006a2:	480a      	ldr	r0, [pc, #40]	; (80006cc <SystemClock_Config+0xc8>)
 80006a4:	f002 f90a 	bl	80028bc <LL_SetSystemCoreClock>
 80006a8:	f8d4 308c 	ldr.w	r3, [r4, #140]	; 0x8c
 80006ac:	f023 7380 	bic.w	r3, r3, #16777216	; 0x1000000
 80006b0:	f8c4 308c 	str.w	r3, [r4, #140]	; 0x8c
 80006b4:	bd10      	pop	{r4, pc}
 80006b6:	bf00      	nop
 80006b8:	40023c00 	.word	0x40023c00
 80006bc:	40007000 	.word	0x40007000
 80006c0:	40023800 	.word	0x40023800
 80006c4:	ffbf8000 	.word	0xffbf8000
 80006c8:	00402a19 	.word	0x00402a19
 80006cc:	0501bd00 	.word	0x0501bd00

080006d0 <main>:
 80006d0:	e92d 4ff0 	stmdb	sp!, {r4, r5, r6, r7, r8, r9, sl, fp, lr}
 80006d4:	4ac0      	ldr	r2, [pc, #768]	; (80009d8 <main+0x308>)
 80006d6:	4bc1      	ldr	r3, [pc, #772]	; (80009dc <main+0x30c>)
 80006d8:	6811      	ldr	r1, [r2, #0]
 80006da:	4cc1      	ldr	r4, [pc, #772]	; (80009e0 <main+0x310>)
 80006dc:	f441 7100 	orr.w	r1, r1, #512	; 0x200
 80006e0:	ed2d 8b02 	vpush	{d8}
 80006e4:	6011      	str	r1, [r2, #0]
 80006e6:	6811      	ldr	r1, [r2, #0]
 80006e8:	f441 6180 	orr.w	r1, r1, #1024	; 0x400
 80006ec:	6011      	str	r1, [r2, #0]
 80006ee:	6811      	ldr	r1, [r2, #0]
 80006f0:	f441 7180 	orr.w	r1, r1, #256	; 0x100
 80006f4:	6011      	str	r1, [r2, #0]
 80006f6:	6c59      	ldr	r1, [r3, #68]	; 0x44
 80006f8:	4ab9      	ldr	r2, [pc, #740]	; (80009e0 <main+0x310>)
 80006fa:	f441 4180 	orr.w	r1, r1, #16384	; 0x4000
 80006fe:	6459      	str	r1, [r3, #68]	; 0x44
 8000700:	6c59      	ldr	r1, [r3, #68]	; 0x44
 8000702:	f2ad 7d84 	subw	sp, sp, #1924	; 0x784
 8000706:	f401 4180 	and.w	r1, r1, #16384	; 0x4000
 800070a:	9110      	str	r1, [sp, #64]	; 0x40
 800070c:	9910      	ldr	r1, [sp, #64]	; 0x40
 800070e:	6c19      	ldr	r1, [r3, #64]	; 0x40
 8000710:	f041 5180 	orr.w	r1, r1, #268435456	; 0x10000000
 8000714:	6419      	str	r1, [r3, #64]	; 0x40
 8000716:	6c1b      	ldr	r3, [r3, #64]	; 0x40
 8000718:	f003 5380 	and.w	r3, r3, #268435456	; 0x10000000
 800071c:	930f      	str	r3, [sp, #60]	; 0x3c
 800071e:	9b0f      	ldr	r3, [sp, #60]	; 0x3c
 8000720:	68d1      	ldr	r1, [r2, #12]
 8000722:	4bb0      	ldr	r3, [pc, #704]	; (80009e4 <main+0x314>)
 8000724:	f64f 00ff 	movw	r0, #63743	; 0xf8ff
 8000728:	4001      	ands	r1, r0
 800072a:	430b      	orrs	r3, r1
 800072c:	60d3      	str	r3, [r2, #12]
 800072e:	68d3      	ldr	r3, [r2, #12]
 8000730:	f3c3 2302 	ubfx	r3, r3, #8, #3
 8000734:	f1c3 0107 	rsb	r1, r3, #7
 8000738:	1d1a      	adds	r2, r3, #4
 800073a:	2904      	cmp	r1, #4
 800073c:	bf28      	it	cs
 800073e:	2104      	movcs	r1, #4
 8000740:	2a06      	cmp	r2, #6
 8000742:	bf88      	it	hi
 8000744:	1eda      	subhi	r2, r3, #3
 8000746:	f04f 33ff 	mov.w	r3, #4294967295
 800074a:	fa03 f301 	lsl.w	r3, r3, r1
 800074e:	bf98      	it	ls
 8000750:	2200      	movls	r2, #0
 8000752:	43db      	mvns	r3, r3
 8000754:	4093      	lsls	r3, r2
 8000756:	011b      	lsls	r3, r3, #4
 8000758:	b2db      	uxtb	r3, r3
 800075a:	f884 3023 	strb.w	r3, [r4, #35]	; 0x23
 800075e:	f7ff ff51 	bl	8000604 <SystemClock_Config>
 8000762:	4ba1      	ldr	r3, [pc, #644]	; (80009e8 <main+0x318>)
 8000764:	4aa1      	ldr	r2, [pc, #644]	; (80009ec <main+0x31c>)
 8000766:	681b      	ldr	r3, [r3, #0]
 8000768:	fba2 2303 	umull	r2, r3, r2, r3
 800076c:	099b      	lsrs	r3, r3, #6
 800076e:	3b01      	subs	r3, #1
 8000770:	f1b3 7f80 	cmp.w	r3, #16777216	; 0x1000000
 8000774:	d209      	bcs.n	800078a <main+0xba>
 8000776:	f04f 22e0 	mov.w	r2, #3758153728	; 0xe000e000
 800077a:	20f0      	movs	r0, #240	; 0xf0
 800077c:	6153      	str	r3, [r2, #20]
 800077e:	2100      	movs	r1, #0
 8000780:	2307      	movs	r3, #7
 8000782:	f884 0023 	strb.w	r0, [r4, #35]	; 0x23
 8000786:	6191      	str	r1, [r2, #24]
 8000788:	6113      	str	r3, [r2, #16]
 800078a:	2500      	movs	r5, #0
 800078c:	e9cd 552e 	strd	r5, r5, [sp, #184]	; 0xb8
 8000790:	e9cd 554f 	strd	r5, r5, [sp, #316]	; 0x13c
 8000794:	4a91      	ldr	r2, [pc, #580]	; (80009dc <main+0x30c>)
 8000796:	9551      	str	r5, [sp, #324]	; 0x144
 8000798:	6b13      	ldr	r3, [r2, #48]	; 0x30
 800079a:	f8df 8268 	ldr.w	r8, [pc, #616]	; 8000a04 <main+0x334>
 800079e:	4e94      	ldr	r6, [pc, #592]	; (80009f0 <main+0x320>)
 80007a0:	f043 0380 	orr.w	r3, r3, #128	; 0x80
 80007a4:	6313      	str	r3, [r2, #48]	; 0x30
 80007a6:	6b13      	ldr	r3, [r2, #48]	; 0x30
 80007a8:	f003 0380 	and.w	r3, r3, #128	; 0x80
 80007ac:	9317      	str	r3, [sp, #92]	; 0x5c
 80007ae:	9b17      	ldr	r3, [sp, #92]	; 0x5c
 80007b0:	6b13      	ldr	r3, [r2, #48]	; 0x30
 80007b2:	f043 0301 	orr.w	r3, r3, #1
 80007b6:	6313      	str	r3, [r2, #48]	; 0x30
 80007b8:	6b13      	ldr	r3, [r2, #48]	; 0x30
 80007ba:	f003 0301 	and.w	r3, r3, #1
 80007be:	9318      	str	r3, [sp, #96]	; 0x60
 80007c0:	9b18      	ldr	r3, [sp, #96]	; 0x60
 80007c2:	6b13      	ldr	r3, [r2, #48]	; 0x30
 80007c4:	f043 0302 	orr.w	r3, r3, #2
 80007c8:	6313      	str	r3, [r2, #48]	; 0x30
 80007ca:	6b13      	ldr	r3, [r2, #48]	; 0x30
 80007cc:	f003 0302 	and.w	r3, r3, #2
 80007d0:	9319      	str	r3, [sp, #100]	; 0x64
 80007d2:	9b19      	ldr	r3, [sp, #100]	; 0x64
 80007d4:	2702      	movs	r7, #2
 80007d6:	231c      	movs	r3, #28
 80007d8:	f8c8 3018 	str.w	r3, [r8, #24]
 80007dc:	a94c      	add	r1, sp, #304	; 0x130
 80007de:	61b7      	str	r7, [r6, #24]
 80007e0:	220c      	movs	r2, #12
 80007e2:	2301      	movs	r3, #1
 80007e4:	4640      	mov	r0, r8
 80007e6:	e9cd 234c 	strd	r2, r3, [sp, #304]	; 0x130
 80007ea:	2401      	movs	r4, #1
 80007ec:	f04f 0900 	mov.w	r9, #0
 80007f0:	974e      	str	r7, [sp, #312]	; 0x138
 80007f2:	f001 fe3d 	bl	8002470 <LL_GPIO_Init>
 80007f6:	a94c      	add	r1, sp, #304	; 0x130
 80007f8:	2210      	movs	r2, #16
 80007fa:	2301      	movs	r3, #1
 80007fc:	4640      	mov	r0, r8
 80007fe:	f04f 0802 	mov.w	r8, #2
 8000802:	e9cd 234c 	strd	r2, r3, [sp, #304]	; 0x130
 8000806:	e9cd 894e 	strd	r8, r9, [sp, #312]	; 0x138
 800080a:	9450      	str	r4, [sp, #320]	; 0x140
 800080c:	f001 fe30 	bl	8002470 <LL_GPIO_Init>
 8000810:	a94c      	add	r1, sp, #304	; 0x130
 8000812:	2202      	movs	r2, #2
 8000814:	2301      	movs	r3, #1
 8000816:	4630      	mov	r0, r6
 8000818:	e9cd 234c 	strd	r2, r3, [sp, #304]	; 0x130
 800081c:	e9cd 894e 	strd	r8, r9, [sp, #312]	; 0x138
 8000820:	9450      	str	r4, [sp, #320]	; 0x140
 8000822:	f001 fe25 	bl	8002470 <LL_GPIO_Init>
 8000826:	4973      	ldr	r1, [pc, #460]	; (80009f4 <main+0x324>)
 8000828:	230f      	movs	r3, #15
 800082a:	688a      	ldr	r2, [r1, #8]
 800082c:	fa93 f3a3 	rbit	r3, r3
 8000830:	fab3 f383 	clz	r3, r3
 8000834:	f022 020f 	bic.w	r2, r2, #15
 8000838:	fa04 f303 	lsl.w	r3, r4, r3
 800083c:	4313      	orrs	r3, r2
 800083e:	608b      	str	r3, [r1, #8]
 8000840:	a82e      	add	r0, sp, #184	; 0xb8
 8000842:	f88d 70be 	strb.w	r7, [sp, #190]	; 0xbe
 8000846:	942e      	str	r4, [sp, #184]	; 0xb8
 8000848:	f8ad 40bc 	strh.w	r4, [sp, #188]	; 0xbc
 800084c:	f001 fdb0 	bl	80023b0 <LL_EXTI_Init>
 8000850:	68f1      	ldr	r1, [r6, #12]
 8000852:	fa94 f2a4 	rbit	r2, r4
 8000856:	fab2 f282 	clz	r2, r2
 800085a:	fa94 f3a4 	rbit	r3, r4
 800085e:	2003      	movs	r0, #3
 8000860:	40a2      	lsls	r2, r4
 8000862:	fab3 f383 	clz	r3, r3
 8000866:	40a3      	lsls	r3, r4
 8000868:	fa00 f202 	lsl.w	r2, r0, r2
 800086c:	ea21 0202 	bic.w	r2, r1, r2
 8000870:	fa04 f303 	lsl.w	r3, r4, r3
 8000874:	4313      	orrs	r3, r2
 8000876:	60f3      	str	r3, [r6, #12]
 8000878:	6832      	ldr	r2, [r6, #0]
 800087a:	fa94 f3a4 	rbit	r3, r4
 800087e:	fab3 f383 	clz	r3, r3
 8000882:	40a3      	lsls	r3, r4
 8000884:	fa00 f303 	lsl.w	r3, r0, r3
 8000888:	ea22 0303 	bic.w	r3, r2, r3
 800088c:	fa94 f4a4 	rbit	r4, r4
 8000890:	6033      	str	r3, [r6, #0]
 8000892:	4b53      	ldr	r3, [pc, #332]	; (80009e0 <main+0x310>)
 8000894:	f8df 816c 	ldr.w	r8, [pc, #364]	; 8000a04 <main+0x334>
 8000898:	68db      	ldr	r3, [r3, #12]
 800089a:	f8df b16c 	ldr.w	fp, [pc, #364]	; 8000a08 <main+0x338>
 800089e:	4f56      	ldr	r7, [pc, #344]	; (80009f8 <main+0x328>)
 80008a0:	f3c3 2302 	ubfx	r3, r3, #8, #3
 80008a4:	f1c3 0207 	rsb	r2, r3, #7
 80008a8:	2a04      	cmp	r2, #4
 80008aa:	f103 0104 	add.w	r1, r3, #4
 80008ae:	bf28      	it	cs
 80008b0:	2204      	movcs	r2, #4
 80008b2:	2906      	cmp	r1, #6
 80008b4:	bf88      	it	hi
 80008b6:	1edd      	subhi	r5, r3, #3
 80008b8:	f04f 33ff 	mov.w	r3, #4294967295
 80008bc:	4093      	lsls	r3, r2
 80008be:	43db      	mvns	r3, r3
 80008c0:	f003 0304 	and.w	r3, r3, #4
 80008c4:	40ab      	lsls	r3, r5
 80008c6:	494d      	ldr	r1, [pc, #308]	; (80009fc <main+0x32c>)
 80008c8:	4a44      	ldr	r2, [pc, #272]	; (80009dc <main+0x30c>)
 80008ca:	4d44      	ldr	r5, [pc, #272]	; (80009dc <main+0x30c>)
 80008cc:	011b      	lsls	r3, r3, #4
 80008ce:	b2db      	uxtb	r3, r3
 80008d0:	2040      	movs	r0, #64	; 0x40
 80008d2:	f881 3306 	strb.w	r3, [r1, #774]	; 0x306
 80008d6:	6008      	str	r0, [r1, #0]
 80008d8:	6b13      	ldr	r3, [r2, #48]	; 0x30
 80008da:	f443 0380 	orr.w	r3, r3, #4194304	; 0x400000
 80008de:	6313      	str	r3, [r2, #48]	; 0x30
 80008e0:	6b13      	ldr	r3, [r2, #48]	; 0x30
 80008e2:	f403 0380 	and.w	r3, r3, #4194304	; 0x400000
 80008e6:	9316      	str	r3, [sp, #88]	; 0x58
 80008e8:	4b3d      	ldr	r3, [pc, #244]	; (80009e0 <main+0x310>)
 80008ea:	9a16      	ldr	r2, [sp, #88]	; 0x58
 80008ec:	68db      	ldr	r3, [r3, #12]
 80008ee:	f3c3 2302 	ubfx	r3, r3, #8, #3
 80008f2:	f1c3 0107 	rsb	r1, r3, #7
 80008f6:	1d1a      	adds	r2, r3, #4
 80008f8:	2904      	cmp	r1, #4
 80008fa:	bf28      	it	cs
 80008fc:	2104      	movcs	r1, #4
 80008fe:	2a06      	cmp	r2, #6
 8000900:	bf88      	it	hi
 8000902:	1eda      	subhi	r2, r3, #3
 8000904:	f04f 33ff 	mov.w	r3, #4294967295
 8000908:	fa03 f301 	lsl.w	r3, r3, r1
 800090c:	ea6f 0303 	mvn.w	r3, r3
 8000910:	bf98      	it	ls
 8000912:	2200      	movls	r2, #0
 8000914:	f003 0303 	and.w	r3, r3, #3
 8000918:	4093      	lsls	r3, r2
 800091a:	011b      	lsls	r3, r3, #4
 800091c:	4a37      	ldr	r2, [pc, #220]	; (80009fc <main+0x32c>)
 800091e:	b2db      	uxtb	r3, r3
 8000920:	f04f 6100 	mov.w	r1, #134217728	; 0x8000000
 8000924:	2600      	movs	r6, #0
 8000926:	f882 333b 	strb.w	r3, [r2, #827]	; 0x33b
 800092a:	a84c      	add	r0, sp, #304	; 0x130
 800092c:	6051      	str	r1, [r2, #4]
 800092e:	2228      	movs	r2, #40	; 0x28
 8000930:	2100      	movs	r1, #0
 8000932:	f003 fb71 	bl	8004018 <memset>
 8000936:	e9cd 6631 	strd	r6, r6, [sp, #196]	; 0xc4
 800093a:	6c6b      	ldr	r3, [r5, #68]	; 0x44
 800093c:	f443 5380 	orr.w	r3, r3, #4096	; 0x1000
 8000940:	646b      	str	r3, [r5, #68]	; 0x44
 8000942:	6c6b      	ldr	r3, [r5, #68]	; 0x44
 8000944:	f403 5380 	and.w	r3, r3, #4096	; 0x1000
 8000948:	9313      	str	r3, [sp, #76]	; 0x4c
 800094a:	9b13      	ldr	r3, [sp, #76]	; 0x4c
 800094c:	6b2b      	ldr	r3, [r5, #48]	; 0x30
 800094e:	f043 0301 	orr.w	r3, r3, #1
 8000952:	632b      	str	r3, [r5, #48]	; 0x30
 8000954:	6b2b      	ldr	r3, [r5, #48]	; 0x30
 8000956:	f003 0301 	and.w	r3, r3, #1
 800095a:	9314      	str	r3, [sp, #80]	; 0x50
 800095c:	9b14      	ldr	r3, [sp, #80]	; 0x50
 800095e:	6b2b      	ldr	r3, [r5, #48]	; 0x30
 8000960:	f043 0302 	orr.w	r3, r3, #2
 8000964:	632b      	str	r3, [r5, #48]	; 0x30
 8000966:	6b2b      	ldr	r3, [r5, #48]	; 0x30
 8000968:	f003 0302 	and.w	r3, r3, #2
 800096c:	9315      	str	r3, [sp, #84]	; 0x54
 800096e:	9b15      	ldr	r3, [sp, #84]	; 0x54
 8000970:	2305      	movs	r3, #5
 8000972:	f04f 0a03 	mov.w	sl, #3
 8000976:	22a0      	movs	r2, #160	; 0xa0
 8000978:	a92e      	add	r1, sp, #184	; 0xb8
 800097a:	9333      	str	r3, [sp, #204]	; 0xcc
 800097c:	4640      	mov	r0, r8
 800097e:	2302      	movs	r3, #2
 8000980:	e9cd 232e 	strd	r2, r3, [sp, #184]	; 0xb8
 8000984:	f8cd a0c0 	str.w	sl, [sp, #192]	; 0xc0
 8000988:	f001 fd72 	bl	8002470 <LL_GPIO_Init>
 800098c:	2210      	movs	r2, #16
 800098e:	2302      	movs	r3, #2
 8000990:	e9cd 232e 	strd	r2, r3, [sp, #184]	; 0xb8
 8000994:	2203      	movs	r2, #3
 8000996:	2300      	movs	r3, #0
 8000998:	e9cd 2330 	strd	r2, r3, [sp, #192]	; 0xc0
 800099c:	a92e      	add	r1, sp, #184	; 0xb8
 800099e:	2200      	movs	r2, #0
 80009a0:	2305      	movs	r3, #5
 80009a2:	4813      	ldr	r0, [pc, #76]	; (80009f0 <main+0x320>)
 80009a4:	e9cd 2332 	strd	r2, r3, [sp, #200]	; 0xc8
 80009a8:	f001 fd62 	bl	8002470 <LL_GPIO_Init>
 80009ac:	4b14      	ldr	r3, [pc, #80]	; (8000a00 <main+0x330>)
 80009ae:	6d9a      	ldr	r2, [r3, #88]	; 0x58
 80009b0:	f022 6260 	bic.w	r2, r2, #234881024	; 0xe000000
 80009b4:	f042 62c0 	orr.w	r2, r2, #100663296	; 0x6000000
 80009b8:	659a      	str	r2, [r3, #88]	; 0x58
 80009ba:	6d9a      	ldr	r2, [r3, #88]	; 0x58
 80009bc:	f022 02c0 	bic.w	r2, r2, #192	; 0xc0
 80009c0:	f042 0240 	orr.w	r2, r2, #64	; 0x40
 80009c4:	659a      	str	r2, [r3, #88]	; 0x58
 80009c6:	6d9a      	ldr	r2, [r3, #88]	; 0x58
 80009c8:	f422 3240 	bic.w	r2, r2, #196608	; 0x30000
 80009cc:	659a      	str	r2, [r3, #88]	; 0x58
 80009ce:	6d9a      	ldr	r2, [r3, #88]	; 0x58
 80009d0:	f422 7290 	bic.w	r2, r2, #288	; 0x120
 80009d4:	e01a      	b.n	8000a0c <main+0x33c>
 80009d6:	bf00      	nop
 80009d8:	40023c00 	.word	0x40023c00
 80009dc:	40023800 	.word	0x40023800
 80009e0:	e000ed00 	.word	0xe000ed00
 80009e4:	05fa0300 	.word	0x05fa0300
 80009e8:	20000000 	.word	0x20000000
 80009ec:	10624dd3 	.word	0x10624dd3
 80009f0:	40020400 	.word	0x40020400
 80009f4:	40013800 	.word	0x40013800
 80009f8:	40000400 	.word	0x40000400
 80009fc:	e000e100 	.word	0xe000e100
 8000a00:	40026400 	.word	0x40026400
 8000a04:	40020000 	.word	0x40020000
 8000a08:	40013000 	.word	0x40013000
 8000a0c:	659a      	str	r2, [r3, #88]	; 0x58
 8000a0e:	6d9a      	ldr	r2, [r3, #88]	; 0x58
 8000a10:	f422 7200 	bic.w	r2, r2, #512	; 0x200
 8000a14:	659a      	str	r2, [r3, #88]	; 0x58
 8000a16:	6d9a      	ldr	r2, [r3, #88]	; 0x58
 8000a18:	f442 6280 	orr.w	r2, r2, #1024	; 0x400
 8000a1c:	659a      	str	r2, [r3, #88]	; 0x58
 8000a1e:	6d9a      	ldr	r2, [r3, #88]	; 0x58
 8000a20:	f422 52c0 	bic.w	r2, r2, #6144	; 0x1800
 8000a24:	f442 6200 	orr.w	r2, r2, #2048	; 0x800
 8000a28:	659a      	str	r2, [r3, #88]	; 0x58
 8000a2a:	6d9a      	ldr	r2, [r3, #88]	; 0x58
 8000a2c:	f422 42c0 	bic.w	r2, r2, #24576	; 0x6000
 8000a30:	f442 5200 	orr.w	r2, r2, #8192	; 0x2000
 8000a34:	659a      	str	r2, [r3, #88]	; 0x58
 8000a36:	6eda      	ldr	r2, [r3, #108]	; 0x6c
 8000a38:	f022 0204 	bic.w	r2, r2, #4
 8000a3c:	66da      	str	r2, [r3, #108]	; 0x6c
 8000a3e:	2200      	movs	r2, #0
 8000a40:	f44f 7382 	mov.w	r3, #260	; 0x104
 8000a44:	e9cd 234c 	strd	r2, r3, [sp, #304]	; 0x130
 8000a48:	ed9f 8b6f 	vldr	d8, [pc, #444]	; 8000c08 <main+0x538>
 8000a4c:	f44f 6200 	mov.w	r2, #2048	; 0x800
 8000a50:	2300      	movs	r3, #0
 8000a52:	e9cd 234e 	strd	r2, r3, [sp, #312]	; 0x138
 8000a56:	2200      	movs	r2, #0
 8000a58:	f44f 7300 	mov.w	r3, #512	; 0x200
 8000a5c:	e9cd 2350 	strd	r2, r3, [sp, #320]	; 0x140
 8000a60:	a94c      	add	r1, sp, #304	; 0x130
 8000a62:	2200      	movs	r2, #0
 8000a64:	230a      	movs	r3, #10
 8000a66:	4658      	mov	r0, fp
 8000a68:	e9cd 2354 	strd	r2, r3, [sp, #336]	; 0x150
 8000a6c:	ed8d 8b52 	vstr	d8, [sp, #328]	; 0x148
 8000a70:	f001 fda2 	bl	80025b8 <LL_SPI_Init>
 8000a74:	f8db 3004 	ldr.w	r3, [fp, #4]
 8000a78:	ac24      	add	r4, sp, #144	; 0x90
 8000a7a:	f023 0310 	bic.w	r3, r3, #16
 8000a7e:	f8cb 3004 	str.w	r3, [fp, #4]
 8000a82:	2220      	movs	r2, #32
 8000a84:	e9c4 6600 	strd	r6, r6, [r4]
 8000a88:	e9c4 6602 	strd	r6, r6, [r4, #8]
 8000a8c:	6126      	str	r6, [r4, #16]
 8000a8e:	4631      	mov	r1, r6
 8000a90:	a84c      	add	r0, sp, #304	; 0x130
 8000a92:	f003 fac1 	bl	8004018 <memset>
 8000a96:	e9cd 662e 	strd	r6, r6, [sp, #184]	; 0xb8
 8000a9a:	e9cd 6630 	strd	r6, r6, [sp, #192]	; 0xc0
 8000a9e:	e9cd 6632 	strd	r6, r6, [sp, #200]	; 0xc8
 8000aa2:	6c2b      	ldr	r3, [r5, #64]	; 0x40
 8000aa4:	f8df b188 	ldr.w	fp, [pc, #392]	; 8000c30 <main+0x560>
 8000aa8:	f043 0302 	orr.w	r3, r3, #2
 8000aac:	642b      	str	r3, [r5, #64]	; 0x40
 8000aae:	6c2b      	ldr	r3, [r5, #64]	; 0x40
 8000ab0:	f003 0302 	and.w	r3, r3, #2
 8000ab4:	9311      	str	r3, [sp, #68]	; 0x44
 8000ab6:	9b11      	ldr	r3, [sp, #68]	; 0x44
 8000ab8:	f240 33e7 	movw	r3, #999	; 0x3e7
 8000abc:	8023      	strh	r3, [r4, #0]
 8000abe:	23d1      	movs	r3, #209	; 0xd1
 8000ac0:	4621      	mov	r1, r4
 8000ac2:	60a3      	str	r3, [r4, #8]
 8000ac4:	4638      	mov	r0, r7
 8000ac6:	f001 fdaf 	bl	8002628 <LL_TIM_Init>
 8000aca:	683b      	ldr	r3, [r7, #0]
 8000acc:	f04f 4980 	mov.w	r9, #1073741824	; 0x40000000
 8000ad0:	f023 0380 	bic.w	r3, r3, #128	; 0x80
 8000ad4:	603b      	str	r3, [r7, #0]
 8000ad6:	f8d9 3418 	ldr.w	r3, [r9, #1048]	; 0x418
 8000ada:	ed9f 7b4d 	vldr	d7, [pc, #308]	; 8000c10 <main+0x540>
 8000ade:	f043 0308 	orr.w	r3, r3, #8
 8000ae2:	f8c9 3418 	str.w	r3, [r9, #1048]	; 0x418
 8000ae6:	ed8d 7b4c 	vstr	d7, [sp, #304]	; 0x130
 8000aea:	ed9f 7b4b 	vldr	d7, [pc, #300]	; 8000c18 <main+0x548>
 8000aee:	aa4c      	add	r2, sp, #304	; 0x130
 8000af0:	2101      	movs	r1, #1
 8000af2:	4638      	mov	r0, r7
 8000af4:	ed8d 7b4e 	vstr	d7, [sp, #312]	; 0x138
 8000af8:	9650      	str	r6, [sp, #320]	; 0x140
 8000afa:	f001 fde1 	bl	80026c0 <LL_TIM_OC_Init>
 8000afe:	f8d9 3418 	ldr.w	r3, [r9, #1048]	; 0x418
 8000b02:	f023 0304 	bic.w	r3, r3, #4
 8000b06:	f8c9 3418 	str.w	r3, [r9, #1048]	; 0x418
 8000b0a:	687b      	ldr	r3, [r7, #4]
 8000b0c:	f8df 9124 	ldr.w	r9, [pc, #292]	; 8000c34 <main+0x564>
 8000b10:	f023 0370 	bic.w	r3, r3, #112	; 0x70
 8000b14:	607b      	str	r3, [r7, #4]
 8000b16:	68bb      	ldr	r3, [r7, #8]
 8000b18:	f023 0380 	bic.w	r3, r3, #128	; 0x80
 8000b1c:	60bb      	str	r3, [r7, #8]
 8000b1e:	6b2b      	ldr	r3, [r5, #48]	; 0x30
 8000b20:	f043 0301 	orr.w	r3, r3, #1
 8000b24:	632b      	str	r3, [r5, #48]	; 0x30
 8000b26:	6b2b      	ldr	r3, [r5, #48]	; 0x30
 8000b28:	f003 0301 	and.w	r3, r3, #1
 8000b2c:	9312      	str	r3, [sp, #72]	; 0x48
 8000b2e:	9b12      	ldr	r3, [sp, #72]	; 0x48
 8000b30:	2240      	movs	r2, #64	; 0x40
 8000b32:	2302      	movs	r3, #2
 8000b34:	e9cd 232e 	strd	r2, r3, [sp, #184]	; 0xb8
 8000b38:	a92e      	add	r1, sp, #184	; 0xb8
 8000b3a:	2200      	movs	r2, #0
 8000b3c:	2302      	movs	r3, #2
 8000b3e:	4640      	mov	r0, r8
 8000b40:	e9cd 2332 	strd	r2, r3, [sp, #200]	; 0xc8
 8000b44:	ed8d 8b30 	vstr	d8, [sp, #192]	; 0xc0
 8000b48:	f001 fc92 	bl	8002470 <LL_GPIO_Init>
 8000b4c:	2308      	movs	r3, #8
 8000b4e:	8223      	strh	r3, [r4, #16]
 8000b50:	2304      	movs	r3, #4
 8000b52:	8323      	strh	r3, [r4, #24]
 8000b54:	2310      	movs	r3, #16
 8000b56:	8423      	strh	r3, [r4, #32]
 8000b58:	a333      	add	r3, pc, #204	; (adr r3, 8000c28 <main+0x558>)
 8000b5a:	e9d3 2300 	ldrd	r2, r3, [r3]
 8000b5e:	e9c4 2300 	strd	r2, r3, [r4]
 8000b62:	4b2f      	ldr	r3, [pc, #188]	; (8000c20 <main+0x550>)
 8000b64:	f8c4 8014 	str.w	r8, [r4, #20]
 8000b68:	cb0f      	ldmia	r3, {r0, r1, r2, r3}
 8000b6a:	f10d 0c68 	add.w	ip, sp, #104	; 0x68
 8000b6e:	f10d 0e24 	add.w	lr, sp, #36	; 0x24
 8000b72:	e88c 000f 	stmia.w	ip, {r0, r1, r2, r3}
 8000b76:	e9c4 a802 	strd	sl, r8, [r4, #8]
 8000b7a:	f8c4 801c 	str.w	r8, [r4, #28]
 8000b7e:	f8df a0b8 	ldr.w	sl, [pc, #184]	; 8000c38 <main+0x568>
 8000b82:	f8df 80b8 	ldr.w	r8, [pc, #184]	; 8000c3c <main+0x56c>
 8000b86:	e88e 000f 	stmia.w	lr, {r0, r1, r2, r3}
 8000b8a:	f44f 769b 	mov.w	r6, #310	; 0x136
 8000b8e:	2702      	movs	r7, #2
 8000b90:	e9cd 6701 	strd	r6, r7, [sp, #4]
 8000b94:	e9cd ab05 	strd	sl, fp, [sp, #20]
 8000b98:	e9cd 8903 	strd	r8, r9, [sp, #12]
 8000b9c:	25f0      	movs	r5, #240	; 0xf0
 8000b9e:	9407      	str	r4, [sp, #28]
 8000ba0:	4c20      	ldr	r4, [pc, #128]	; (8000c24 <main+0x554>)
 8000ba2:	9500      	str	r5, [sp, #0]
 8000ba4:	9708      	str	r7, [sp, #32]
 8000ba6:	4633      	mov	r3, r6
 8000ba8:	462a      	mov	r2, r5
 8000baa:	a94c      	add	r1, sp, #304	; 0x130
 8000bac:	6820      	ldr	r0, [r4, #0]
 8000bae:	f000 fa9b 	bl	80010e8 <LCD_DisplayAdd>
 8000bb2:	4606      	mov	r6, r0
 8000bb4:	6020      	str	r0, [r4, #0]
 8000bb6:	f000 fb97 	bl	80012e8 <LCD_Init>
 8000bba:	f44f 017f 	mov.w	r1, #16711680	; 0xff0000
 8000bbe:	4630      	mov	r0, r6
 8000bc0:	f000 fcf4 	bl	80015ac <LCD_Fill>
 8000bc4:	4b16      	ldr	r3, [pc, #88]	; (8000c20 <main+0x550>)
 8000bc6:	f103 0410 	add.w	r4, r3, #16
 8000bca:	cc0f      	ldmia	r4!, {r0, r1, r2, r3}
 8000bcc:	ad1e      	add	r5, sp, #120	; 0x78
 8000bce:	c50f      	stmia	r5!, {r0, r1, r2, r3}
 8000bd0:	e894 0003 	ldmia.w	r4, {r0, r1}
 8000bd4:	aa1e      	add	r2, sp, #120	; 0x78
 8000bd6:	e885 0003 	stmia.w	r5, {r0, r1}
 8000bda:	2114      	movs	r1, #20
 8000bdc:	a82e      	add	r0, sp, #184	; 0xb8
 8000bde:	f003 f815 	bl	8003c0c <XPT2046_InitTouch>
 8000be2:	2301      	movs	r3, #1
 8000be4:	4631      	mov	r1, r6
 8000be6:	a82e      	add	r0, sp, #184	; 0xb8
 8000be8:	f88d 30e0 	strb.w	r3, [sp, #224]	; 0xe0
 8000bec:	f001 fec0 	bl	8002970 <XPT2046_CalibrateTouch>
 8000bf0:	4631      	mov	r1, r6
 8000bf2:	a82e      	add	r0, sp, #184	; 0xb8
 8000bf4:	f002 fcba 	bl	800356c <Draw_TouchPenDemo>
 8000bf8:	4631      	mov	r1, r6
 8000bfa:	a82e      	add	r0, sp, #184	; 0xb8
 8000bfc:	f002 fdd8 	bl	80037b0 <RoadCircleDemo>
 8000c00:	e7fe      	b.n	8000c00 <main+0x530>
 8000c02:	bf00      	nop
 8000c04:	f3af 8000 	nop.w
	...
 8000c10:	00000060 	.word	0x00000060
	...
 8000c1c:	00000068 	.word	0x00000068
 8000c20:	08005138 	.word	0x08005138
 8000c24:	20000150 	.word	0x20000150
 8000c28:	40013000 	.word	0x40013000
 8000c2c:	40026400 	.word	0x40026400
 8000c30:	080023a9 	.word	0x080023a9
 8000c34:	0800237d 	.word	0x0800237d
 8000c38:	080023a1 	.word	0x080023a1
 8000c3c:	08002341 	.word	0x08002341

08000c40 <NMI_Handler>:
 8000c40:	e7fe      	b.n	8000c40 <NMI_Handler>
 8000c42:	bf00      	nop

08000c44 <HardFault_Handler>:
 8000c44:	e7fe      	b.n	8000c44 <HardFault_Handler>
 8000c46:	bf00      	nop

08000c48 <MemManage_Handler>:
 8000c48:	e7fe      	b.n	8000c48 <MemManage_Handler>
 8000c4a:	bf00      	nop

08000c4c <BusFault_Handler>:
 8000c4c:	e7fe      	b.n	8000c4c <BusFault_Handler>
 8000c4e:	bf00      	nop

08000c50 <UsageFault_Handler>:
 8000c50:	e7fe      	b.n	8000c50 <UsageFault_Handler>
 8000c52:	bf00      	nop

08000c54 <SVC_Handler>:
 8000c54:	4770      	bx	lr
 8000c56:	bf00      	nop

08000c58 <DebugMon_Handler>:
 8000c58:	4770      	bx	lr
 8000c5a:	bf00      	nop

08000c5c <PendSV_Handler>:
 8000c5c:	4770      	bx	lr
 8000c5e:	bf00      	nop

08000c60 <SysTick_Handler>:
 8000c60:	b508      	push	{r3, lr}
 8000c62:	4b04      	ldr	r3, [pc, #16]	; (8000c74 <SysTick_Handler+0x14>)
 8000c64:	6818      	ldr	r0, [r3, #0]
 8000c66:	f003 f901 	bl	8003e6c <XPT2046_TIMCallback>
 8000c6a:	4a03      	ldr	r2, [pc, #12]	; (8000c78 <SysTick_Handler+0x18>)
 8000c6c:	6813      	ldr	r3, [r2, #0]
 8000c6e:	3301      	adds	r3, #1
 8000c70:	6013      	str	r3, [r2, #0]
 8000c72:	bd08      	pop	{r3, pc}
 8000c74:	20000154 	.word	0x20000154
 8000c78:	20000148 	.word	0x20000148

08000c7c <EXTI0_IRQHandler>:
 8000c7c:	4b05      	ldr	r3, [pc, #20]	; (8000c94 <EXTI0_IRQHandler+0x18>)
 8000c7e:	695a      	ldr	r2, [r3, #20]
 8000c80:	07d2      	lsls	r2, r2, #31
 8000c82:	d400      	bmi.n	8000c86 <EXTI0_IRQHandler+0xa>
 8000c84:	4770      	bx	lr
 8000c86:	4a04      	ldr	r2, [pc, #16]	; (8000c98 <EXTI0_IRQHandler+0x1c>)
 8000c88:	2101      	movs	r1, #1
 8000c8a:	6810      	ldr	r0, [r2, #0]
 8000c8c:	6159      	str	r1, [r3, #20]
 8000c8e:	f003 b8c3 	b.w	8003e18 <XPT2046_EXTICallback>
 8000c92:	bf00      	nop
 8000c94:	40013c00 	.word	0x40013c00
 8000c98:	20000154 	.word	0x20000154

08000c9c <DMA2_Stream3_IRQHandler>:
 8000c9c:	4801      	ldr	r0, [pc, #4]	; (8000ca4 <DMA2_Stream3_IRQHandler+0x8>)
 8000c9e:	2103      	movs	r1, #3
 8000ca0:	f000 b892 	b.w	8000dc8 <Display_TC_Callback>
 8000ca4:	40026400 	.word	0x40026400

08000ca8 <_getpid>:
 8000ca8:	2001      	movs	r0, #1
 8000caa:	4770      	bx	lr

08000cac <_kill>:
 8000cac:	b508      	push	{r3, lr}
 8000cae:	f003 f96f 	bl	8003f90 <__errno>
 8000cb2:	2316      	movs	r3, #22
 8000cb4:	6003      	str	r3, [r0, #0]
 8000cb6:	f04f 30ff 	mov.w	r0, #4294967295
 8000cba:	bd08      	pop	{r3, pc}

08000cbc <_exit>:
 8000cbc:	b508      	push	{r3, lr}
 8000cbe:	f003 f967 	bl	8003f90 <__errno>
 8000cc2:	2316      	movs	r3, #22
 8000cc4:	6003      	str	r3, [r0, #0]
 8000cc6:	e7fe      	b.n	8000cc6 <_exit+0xa>

08000cc8 <_read>:
 8000cc8:	b570      	push	{r4, r5, r6, lr}
 8000cca:	1e16      	subs	r6, r2, #0
 8000ccc:	dd07      	ble.n	8000cde <_read+0x16>
 8000cce:	460c      	mov	r4, r1
 8000cd0:	198d      	adds	r5, r1, r6
 8000cd2:	f3af 8000 	nop.w
 8000cd6:	f804 0b01 	strb.w	r0, [r4], #1
 8000cda:	42a5      	cmp	r5, r4
 8000cdc:	d1f9      	bne.n	8000cd2 <_read+0xa>
 8000cde:	4630      	mov	r0, r6
 8000ce0:	bd70      	pop	{r4, r5, r6, pc}
 8000ce2:	bf00      	nop

08000ce4 <_write>:
 8000ce4:	b570      	push	{r4, r5, r6, lr}
 8000ce6:	1e16      	subs	r6, r2, #0
 8000ce8:	dd07      	ble.n	8000cfa <_write+0x16>
 8000cea:	460c      	mov	r4, r1
 8000cec:	198d      	adds	r5, r1, r6
 8000cee:	f814 0b01 	ldrb.w	r0, [r4], #1
 8000cf2:	f3af 8000 	nop.w
 8000cf6:	42ac      	cmp	r4, r5
 8000cf8:	d1f9      	bne.n	8000cee <_write+0xa>
 8000cfa:	4630      	mov	r0, r6
 8000cfc:	bd70      	pop	{r4, r5, r6, pc}
 8000cfe:	bf00      	nop

08000d00 <_close>:
 8000d00:	f04f 30ff 	mov.w	r0, #4294967295
 8000d04:	4770      	bx	lr
 8000d06:	bf00      	nop

08000d08 <_fstat>:
 8000d08:	f44f 5300 	mov.w	r3, #8192	; 0x2000
 8000d0c:	604b      	str	r3, [r1, #4]
 8000d0e:	2000      	movs	r0, #0
 8000d10:	4770      	bx	lr
 8000d12:	bf00      	nop

08000d14 <_isatty>:
 8000d14:	2001      	movs	r0, #1
 8000d16:	4770      	bx	lr

08000d18 <_lseek>:
 8000d18:	2000      	movs	r0, #0
 8000d1a:	4770      	bx	lr

08000d1c <_sbrk>:
 8000d1c:	b510      	push	{r4, lr}
 8000d1e:	4c0c      	ldr	r4, [pc, #48]	; (8000d50 <_sbrk+0x34>)
 8000d20:	4b0c      	ldr	r3, [pc, #48]	; (8000d54 <_sbrk+0x38>)
 8000d22:	490d      	ldr	r1, [pc, #52]	; (8000d58 <_sbrk+0x3c>)
 8000d24:	6822      	ldr	r2, [r4, #0]
 8000d26:	1a59      	subs	r1, r3, r1
 8000d28:	b12a      	cbz	r2, 8000d36 <_sbrk+0x1a>
 8000d2a:	4410      	add	r0, r2
 8000d2c:	4288      	cmp	r0, r1
 8000d2e:	d807      	bhi.n	8000d40 <_sbrk+0x24>
 8000d30:	6020      	str	r0, [r4, #0]
 8000d32:	4610      	mov	r0, r2
 8000d34:	bd10      	pop	{r4, pc}
 8000d36:	4a09      	ldr	r2, [pc, #36]	; (8000d5c <_sbrk+0x40>)
 8000d38:	6022      	str	r2, [r4, #0]
 8000d3a:	4410      	add	r0, r2
 8000d3c:	4288      	cmp	r0, r1
 8000d3e:	d9f7      	bls.n	8000d30 <_sbrk+0x14>
 8000d40:	f003 f926 	bl	8003f90 <__errno>
 8000d44:	230c      	movs	r3, #12
 8000d46:	f04f 32ff 	mov.w	r2, #4294967295
 8000d4a:	6003      	str	r3, [r0, #0]
 8000d4c:	4610      	mov	r0, r2
 8000d4e:	bd10      	pop	{r4, pc}
 8000d50:	2000014c 	.word	0x2000014c
 8000d54:	20010000 	.word	0x20010000
 8000d58:	00000400 	.word	0x00000400
 8000d5c:	20000168 	.word	0x20000168

08000d60 <SystemInit>:
 8000d60:	4a03      	ldr	r2, [pc, #12]	; (8000d70 <SystemInit+0x10>)
 8000d62:	f8d2 3088 	ldr.w	r3, [r2, #136]	; 0x88
 8000d66:	f443 0370 	orr.w	r3, r3, #15728640	; 0xf00000
 8000d6a:	f8c2 3088 	str.w	r3, [r2, #136]	; 0x88
 8000d6e:	4770      	bx	lr
 8000d70:	e000ed00 	.word	0xe000ed00

08000d74 <Reset_Handler>:
 8000d74:	f8df d034 	ldr.w	sp, [pc, #52]	; 8000dac <LoopFillZerobss+0x12>
 8000d78:	480d      	ldr	r0, [pc, #52]	; (8000db0 <LoopFillZerobss+0x16>)
 8000d7a:	490e      	ldr	r1, [pc, #56]	; (8000db4 <LoopFillZerobss+0x1a>)
 8000d7c:	4a0e      	ldr	r2, [pc, #56]	; (8000db8 <LoopFillZerobss+0x1e>)
 8000d7e:	2300      	movs	r3, #0
 8000d80:	e002      	b.n	8000d88 <LoopCopyDataInit>

08000d82 <CopyDataInit>:
 8000d82:	58d4      	ldr	r4, [r2, r3]
 8000d84:	50c4      	str	r4, [r0, r3]
 8000d86:	3304      	adds	r3, #4

08000d88 <LoopCopyDataInit>:
 8000d88:	18c4      	adds	r4, r0, r3
 8000d8a:	428c      	cmp	r4, r1
 8000d8c:	d3f9      	bcc.n	8000d82 <CopyDataInit>
 8000d8e:	4a0b      	ldr	r2, [pc, #44]	; (8000dbc <LoopFillZerobss+0x22>)
 8000d90:	4c0b      	ldr	r4, [pc, #44]	; (8000dc0 <LoopFillZerobss+0x26>)
 8000d92:	2300      	movs	r3, #0
 8000d94:	e001      	b.n	8000d9a <LoopFillZerobss>

08000d96 <FillZerobss>:
 8000d96:	6013      	str	r3, [r2, #0]
 8000d98:	3204      	adds	r2, #4

08000d9a <LoopFillZerobss>:
 8000d9a:	42a2      	cmp	r2, r4
 8000d9c:	d3fb      	bcc.n	8000d96 <FillZerobss>
 8000d9e:	f7ff ffdf 	bl	8000d60 <SystemInit>
 8000da2:	f003 f8fb 	bl	8003f9c <__libc_init_array>
 8000da6:	f7ff fc93 	bl	80006d0 <main>
 8000daa:	4770      	bx	lr
 8000dac:	20010000 	.word	0x20010000
 8000db0:	20000000 	.word	0x20000000
 8000db4:	2000012c 	.word	0x2000012c
 8000db8:	0800609c 	.word	0x0800609c
 8000dbc:	2000012c 	.word	0x2000012c
 8000dc0:	20000168 	.word	0x20000168

08000dc4 <ADC_IRQHandler>:
 8000dc4:	e7fe      	b.n	8000dc4 <ADC_IRQHandler>
	...

08000dc8 <Display_TC_Callback>:
 8000dc8:	b510      	push	{r4, lr}
 8000dca:	4b3d      	ldr	r3, [pc, #244]	; (8000ec0 <Display_TC_Callback+0xf8>)
 8000dcc:	4684      	mov	ip, r0
 8000dce:	468e      	mov	lr, r1
 8000dd0:	e893 0003 	ldmia.w	r3, {r0, r1}
 8000dd4:	b082      	sub	sp, #8
 8000dd6:	ab02      	add	r3, sp, #8
 8000dd8:	e903 0003 	stmdb	r3, {r0, r1}
 8000ddc:	f10e 0208 	add.w	r2, lr, #8
 8000de0:	446a      	add	r2, sp
 8000de2:	f1be 0f03 	cmp.w	lr, #3
 8000de6:	f812 2c08 	ldrb.w	r2, [r2, #-8]
 8000dea:	f04f 033f 	mov.w	r3, #63	; 0x3f
 8000dee:	fa03 f302 	lsl.w	r3, r3, r2
 8000df2:	bf88      	it	hi
 8000df4:	f10c 010c 	addhi.w	r1, ip, #12
 8000df8:	4a32      	ldr	r2, [pc, #200]	; (8000ec4 <Display_TC_Callback+0xfc>)
 8000dfa:	bf98      	it	ls
 8000dfc:	f10c 0108 	addls.w	r1, ip, #8
 8000e00:	600b      	str	r3, [r1, #0]
 8000e02:	6813      	ldr	r3, [r2, #0]
 8000e04:	b133      	cbz	r3, 8000e14 <Display_TC_Callback+0x4c>
 8000e06:	6a9a      	ldr	r2, [r3, #40]	; 0x28
 8000e08:	4594      	cmp	ip, r2
 8000e0a:	d005      	beq.n	8000e18 <Display_TC_Callback+0x50>
 8000e0c:	f8d3 364c 	ldr.w	r3, [r3, #1612]	; 0x64c
 8000e10:	2b00      	cmp	r3, #0
 8000e12:	d1f8      	bne.n	8000e06 <Display_TC_Callback+0x3e>
 8000e14:	b002      	add	sp, #8
 8000e16:	bd10      	pop	{r4, pc}
 8000e18:	6ada      	ldr	r2, [r3, #44]	; 0x2c
 8000e1a:	4596      	cmp	lr, r2
 8000e1c:	d1f6      	bne.n	8000e0c <Display_TC_Callback+0x44>
 8000e1e:	6c1a      	ldr	r2, [r3, #64]	; 0x40
 8000e20:	b122      	cbz	r2, 8000e2c <Display_TC_Callback+0x64>
 8000e22:	6952      	ldr	r2, [r2, #20]
 8000e24:	f8b3 1044 	ldrh.w	r1, [r3, #68]	; 0x44
 8000e28:	4211      	tst	r1, r2
 8000e2a:	d1ef      	bne.n	8000e0c <Display_TC_Callback+0x44>
 8000e2c:	4a26      	ldr	r2, [pc, #152]	; (8000ec8 <Display_TC_Callback+0x100>)
 8000e2e:	f812 000e 	ldrb.w	r0, [r2, lr]
 8000e32:	f85c 2000 	ldr.w	r2, [ip, r0]
 8000e36:	f022 0201 	bic.w	r2, r2, #1
 8000e3a:	f84c 2000 	str.w	r2, [ip, r0]
 8000e3e:	f85c 2000 	ldr.w	r2, [ip, r0]
 8000e42:	07d2      	lsls	r2, r2, #31
 8000e44:	eb0c 0100 	add.w	r1, ip, r0
 8000e48:	d503      	bpl.n	8000e52 <Display_TC_Callback+0x8a>
 8000e4a:	bf00      	nop
 8000e4c:	680a      	ldr	r2, [r1, #0]
 8000e4e:	07d4      	lsls	r4, r2, #31
 8000e50:	d4fb      	bmi.n	8000e4a <Display_TC_Callback+0x82>
 8000e52:	f8d3 263c 	ldr.w	r2, [r3, #1596]	; 0x63c
 8000e56:	b9d2      	cbnz	r2, 8000e8e <Display_TC_Callback+0xc6>
 8000e58:	6a5a      	ldr	r2, [r3, #36]	; 0x24
 8000e5a:	6851      	ldr	r1, [r2, #4]
 8000e5c:	f021 0102 	bic.w	r1, r1, #2
 8000e60:	6051      	str	r1, [r2, #4]
 8000e62:	6891      	ldr	r1, [r2, #8]
 8000e64:	0608      	lsls	r0, r1, #24
 8000e66:	d504      	bpl.n	8000e72 <Display_TC_Callback+0xaa>
 8000e68:	bf00      	nop
 8000e6a:	6a5a      	ldr	r2, [r3, #36]	; 0x24
 8000e6c:	6891      	ldr	r1, [r2, #8]
 8000e6e:	0609      	lsls	r1, r1, #24
 8000e70:	d4fa      	bmi.n	8000e68 <Display_TC_Callback+0xa0>
 8000e72:	f893 1641 	ldrb.w	r1, [r3, #1601]	; 0x641
 8000e76:	b921      	cbnz	r1, 8000e82 <Display_TC_Callback+0xba>
 8000e78:	6c19      	ldr	r1, [r3, #64]	; 0x40
 8000e7a:	b111      	cbz	r1, 8000e82 <Display_TC_Callback+0xba>
 8000e7c:	f8b3 3044 	ldrh.w	r3, [r3, #68]	; 0x44
 8000e80:	618b      	str	r3, [r1, #24]
 8000e82:	6813      	ldr	r3, [r2, #0]
 8000e84:	f023 0340 	bic.w	r3, r3, #64	; 0x40
 8000e88:	6013      	str	r3, [r2, #0]
 8000e8a:	b002      	add	sp, #8
 8000e8c:	bd10      	pop	{r4, pc}
 8000e8e:	f5b2 3f80 	cmp.w	r2, #65536	; 0x10000
 8000e92:	d20b      	bcs.n	8000eac <Display_TC_Callback+0xe4>
 8000e94:	604a      	str	r2, [r1, #4]
 8000e96:	2200      	movs	r2, #0
 8000e98:	f8c3 263c 	str.w	r2, [r3, #1596]	; 0x63c
 8000e9c:	f85c 3000 	ldr.w	r3, [ip, r0]
 8000ea0:	f043 0301 	orr.w	r3, r3, #1
 8000ea4:	f84c 3000 	str.w	r3, [ip, r0]
 8000ea8:	b002      	add	sp, #8
 8000eaa:	bd10      	pop	{r4, pc}
 8000eac:	f5a2 427f 	sub.w	r2, r2, #65280	; 0xff00
 8000eb0:	3aff      	subs	r2, #255	; 0xff
 8000eb2:	f64f 74ff 	movw	r4, #65535	; 0xffff
 8000eb6:	604c      	str	r4, [r1, #4]
 8000eb8:	f8c3 263c 	str.w	r2, [r3, #1596]	; 0x63c
 8000ebc:	e7ee      	b.n	8000e9c <Display_TC_Callback+0xd4>
 8000ebe:	bf00      	nop
 8000ec0:	08005160 	.word	0x08005160
 8000ec4:	20000150 	.word	0x20000150
 8000ec8:	0800527c 	.word	0x0800527c

08000ecc <LCD_String_Interpretator>:
 8000ecc:	b5f8      	push	{r3, r4, r5, r6, r7, lr}
 8000ece:	6a45      	ldr	r5, [r0, #36]	; 0x24
 8000ed0:	682b      	ldr	r3, [r5, #0]
 8000ed2:	065b      	lsls	r3, r3, #25
 8000ed4:	4604      	mov	r4, r0
 8000ed6:	d41e      	bmi.n	8000f16 <LCD_String_Interpretator+0x4a>
 8000ed8:	6c22      	ldr	r2, [r4, #64]	; 0x40
 8000eda:	b11a      	cbz	r2, 8000ee4 <LCD_String_Interpretator+0x18>
 8000edc:	f8b4 3044 	ldrh.w	r3, [r4, #68]	; 0x44
 8000ee0:	041b      	lsls	r3, r3, #16
 8000ee2:	6193      	str	r3, [r2, #24]
 8000ee4:	682b      	ldr	r3, [r5, #0]
 8000ee6:	f423 432c 	bic.w	r3, r3, #44032	; 0xac00
 8000eea:	602b      	str	r3, [r5, #0]
 8000eec:	682b      	ldr	r3, [r5, #0]
 8000eee:	f043 0340 	orr.w	r3, r3, #64	; 0x40
 8000ef2:	602b      	str	r3, [r5, #0]
 8000ef4:	780b      	ldrb	r3, [r1, #0]
 8000ef6:	2b01      	cmp	r3, #1
 8000ef8:	d013      	beq.n	8000f22 <LCD_String_Interpretator+0x56>
 8000efa:	2b02      	cmp	r3, #2
 8000efc:	d069      	beq.n	8000fd2 <LCD_String_Interpretator+0x106>
 8000efe:	2b00      	cmp	r3, #0
 8000f00:	d031      	beq.n	8000f66 <LCD_String_Interpretator+0x9a>
 8000f02:	6c23      	ldr	r3, [r4, #64]	; 0x40
 8000f04:	b113      	cbz	r3, 8000f0c <LCD_String_Interpretator+0x40>
 8000f06:	f8b4 2044 	ldrh.w	r2, [r4, #68]	; 0x44
 8000f0a:	619a      	str	r2, [r3, #24]
 8000f0c:	682b      	ldr	r3, [r5, #0]
 8000f0e:	f023 0340 	bic.w	r3, r3, #64	; 0x40
 8000f12:	602b      	str	r3, [r5, #0]
 8000f14:	bdf8      	pop	{r3, r4, r5, r6, r7, pc}
 8000f16:	bf00      	nop
 8000f18:	6a63      	ldr	r3, [r4, #36]	; 0x24
 8000f1a:	681b      	ldr	r3, [r3, #0]
 8000f1c:	065f      	lsls	r7, r3, #25
 8000f1e:	d5db      	bpl.n	8000ed8 <LCD_String_Interpretator+0xc>
 8000f20:	e7f9      	b.n	8000f16 <LCD_String_Interpretator+0x4a>
 8000f22:	784e      	ldrb	r6, [r1, #1]
 8000f24:	f101 0e02 	add.w	lr, r1, #2
 8000f28:	2e00      	cmp	r6, #0
 8000f2a:	d058      	beq.n	8000fde <LCD_String_Interpretator+0x112>
 8000f2c:	4670      	mov	r0, lr
 8000f2e:	eb0e 0c06 	add.w	ip, lr, r6
 8000f32:	6a63      	ldr	r3, [r4, #36]	; 0x24
 8000f34:	6ba7      	ldr	r7, [r4, #56]	; 0x38
 8000f36:	f810 2b01 	ldrb.w	r2, [r0], #1
 8000f3a:	8fa1      	ldrh	r1, [r4, #60]	; 0x3c
 8000f3c:	61b9      	str	r1, [r7, #24]
 8000f3e:	60da      	str	r2, [r3, #12]
 8000f40:	689a      	ldr	r2, [r3, #8]
 8000f42:	0797      	lsls	r7, r2, #30
 8000f44:	d407      	bmi.n	8000f56 <LCD_String_Interpretator+0x8a>
 8000f46:	bf00      	nop
 8000f48:	689a      	ldr	r2, [r3, #8]
 8000f4a:	0791      	lsls	r1, r2, #30
 8000f4c:	d5fb      	bpl.n	8000f46 <LCD_String_Interpretator+0x7a>
 8000f4e:	689a      	ldr	r2, [r3, #8]
 8000f50:	0612      	lsls	r2, r2, #24
 8000f52:	d503      	bpl.n	8000f5c <LCD_String_Interpretator+0x90>
 8000f54:	bf00      	nop
 8000f56:	689a      	ldr	r2, [r3, #8]
 8000f58:	0612      	lsls	r2, r2, #24
 8000f5a:	d4fb      	bmi.n	8000f54 <LCD_String_Interpretator+0x88>
 8000f5c:	4560      	cmp	r0, ip
 8000f5e:	d1e8      	bne.n	8000f32 <LCD_String_Interpretator+0x66>
 8000f60:	eb0e 0106 	add.w	r1, lr, r6
 8000f64:	e7c6      	b.n	8000ef4 <LCD_String_Interpretator+0x28>
 8000f66:	8fa2      	ldrh	r2, [r4, #60]	; 0x3c
 8000f68:	6a63      	ldr	r3, [r4, #36]	; 0x24
 8000f6a:	6ba6      	ldr	r6, [r4, #56]	; 0x38
 8000f6c:	7848      	ldrb	r0, [r1, #1]
 8000f6e:	0412      	lsls	r2, r2, #16
 8000f70:	61b2      	str	r2, [r6, #24]
 8000f72:	60d8      	str	r0, [r3, #12]
 8000f74:	689a      	ldr	r2, [r3, #8]
 8000f76:	0796      	lsls	r6, r2, #30
 8000f78:	d407      	bmi.n	8000f8a <LCD_String_Interpretator+0xbe>
 8000f7a:	bf00      	nop
 8000f7c:	689a      	ldr	r2, [r3, #8]
 8000f7e:	0790      	lsls	r0, r2, #30
 8000f80:	d5fb      	bpl.n	8000f7a <LCD_String_Interpretator+0xae>
 8000f82:	689a      	ldr	r2, [r3, #8]
 8000f84:	0612      	lsls	r2, r2, #24
 8000f86:	d503      	bpl.n	8000f90 <LCD_String_Interpretator+0xc4>
 8000f88:	bf00      	nop
 8000f8a:	689a      	ldr	r2, [r3, #8]
 8000f8c:	0612      	lsls	r2, r2, #24
 8000f8e:	d4fb      	bmi.n	8000f88 <LCD_String_Interpretator+0xbc>
 8000f90:	788e      	ldrb	r6, [r1, #2]
 8000f92:	f101 0e03 	add.w	lr, r1, #3
 8000f96:	b316      	cbz	r6, 8000fde <LCD_String_Interpretator+0x112>
 8000f98:	4670      	mov	r0, lr
 8000f9a:	eb0e 0c06 	add.w	ip, lr, r6
 8000f9e:	6a63      	ldr	r3, [r4, #36]	; 0x24
 8000fa0:	6ba7      	ldr	r7, [r4, #56]	; 0x38
 8000fa2:	f810 2b01 	ldrb.w	r2, [r0], #1
 8000fa6:	8fa1      	ldrh	r1, [r4, #60]	; 0x3c
 8000fa8:	61b9      	str	r1, [r7, #24]
 8000faa:	60da      	str	r2, [r3, #12]
 8000fac:	689a      	ldr	r2, [r3, #8]
 8000fae:	0797      	lsls	r7, r2, #30
 8000fb0:	d407      	bmi.n	8000fc2 <LCD_String_Interpretator+0xf6>
 8000fb2:	bf00      	nop
 8000fb4:	689a      	ldr	r2, [r3, #8]
 8000fb6:	0791      	lsls	r1, r2, #30
 8000fb8:	d5fb      	bpl.n	8000fb2 <LCD_String_Interpretator+0xe6>
 8000fba:	689a      	ldr	r2, [r3, #8]
 8000fbc:	0612      	lsls	r2, r2, #24
 8000fbe:	d503      	bpl.n	8000fc8 <LCD_String_Interpretator+0xfc>
 8000fc0:	bf00      	nop
 8000fc2:	689a      	ldr	r2, [r3, #8]
 8000fc4:	0612      	lsls	r2, r2, #24
 8000fc6:	d4fb      	bmi.n	8000fc0 <LCD_String_Interpretator+0xf4>
 8000fc8:	4560      	cmp	r0, ip
 8000fca:	d1e8      	bne.n	8000f9e <LCD_String_Interpretator+0xd2>
 8000fcc:	eb0e 0106 	add.w	r1, lr, r6
 8000fd0:	e790      	b.n	8000ef4 <LCD_String_Interpretator+0x28>
 8000fd2:	7848      	ldrb	r0, [r1, #1]
 8000fd4:	1c8e      	adds	r6, r1, #2
 8000fd6:	f001 fc5f 	bl	8002898 <LL_mDelay>
 8000fda:	4631      	mov	r1, r6
 8000fdc:	e78a      	b.n	8000ef4 <LCD_String_Interpretator+0x28>
 8000fde:	4671      	mov	r1, lr
 8000fe0:	e788      	b.n	8000ef4 <LCD_String_Interpretator+0x28>
 8000fe2:	bf00      	nop

08000fe4 <LCD_DrawPixel.part.0>:
 8000fe4:	b570      	push	{r4, r5, r6, lr}
 8000fe6:	4604      	mov	r4, r0
 8000fe8:	8940      	ldrh	r0, [r0, #10]
 8000fea:	89a5      	ldrh	r5, [r4, #12]
 8000fec:	69a6      	ldr	r6, [r4, #24]
 8000fee:	4401      	add	r1, r0
 8000ff0:	442a      	add	r2, r5
 8000ff2:	b288      	uxth	r0, r1
 8000ff4:	b292      	uxth	r2, r2
 8000ff6:	461d      	mov	r5, r3
 8000ff8:	4611      	mov	r1, r2
 8000ffa:	4613      	mov	r3, r2
 8000ffc:	4602      	mov	r2, r0
 8000ffe:	47b0      	blx	r6
 8001000:	4601      	mov	r1, r0
 8001002:	4620      	mov	r0, r4
 8001004:	f7ff ff62 	bl	8000ecc <LCD_String_Interpretator>
 8001008:	4936      	ldr	r1, [pc, #216]	; (80010e4 <LCD_DrawPixel.part.0+0x100>)
 800100a:	f894 0048 	ldrb.w	r0, [r4, #72]	; 0x48
 800100e:	f3c5 02c4 	ubfx	r2, r5, #3, #5
 8001012:	ea01 2115 	and.w	r1, r1, r5, lsr #8
 8001016:	096b      	lsrs	r3, r5, #5
 8001018:	430a      	orrs	r2, r1
 800101a:	f403 63fc 	and.w	r3, r3, #2016	; 0x7e0
 800101e:	431a      	orrs	r2, r3
 8001020:	2801      	cmp	r0, #1
 8001022:	b292      	uxth	r2, r2
 8001024:	d101      	bne.n	800102a <LCD_DrawPixel.part.0+0x46>
 8001026:	ba52      	rev16	r2, r2
 8001028:	b292      	uxth	r2, r2
 800102a:	6a63      	ldr	r3, [r4, #36]	; 0x24
 800102c:	6819      	ldr	r1, [r3, #0]
 800102e:	064e      	lsls	r6, r1, #25
 8001030:	d43e      	bmi.n	80010b0 <LCD_DrawPixel.part.0+0xcc>
 8001032:	f894 1641 	ldrb.w	r1, [r4, #1601]	; 0x641
 8001036:	b929      	cbnz	r1, 8001044 <LCD_DrawPixel.part.0+0x60>
 8001038:	6c25      	ldr	r5, [r4, #64]	; 0x40
 800103a:	b11d      	cbz	r5, 8001044 <LCD_DrawPixel.part.0+0x60>
 800103c:	f8b4 1044 	ldrh.w	r1, [r4, #68]	; 0x44
 8001040:	0409      	lsls	r1, r1, #16
 8001042:	61a9      	str	r1, [r5, #24]
 8001044:	f894 1642 	ldrb.w	r1, [r4, #1602]	; 0x642
 8001048:	b911      	cbnz	r1, 8001050 <LCD_DrawPixel.part.0+0x6c>
 800104a:	6ba1      	ldr	r1, [r4, #56]	; 0x38
 800104c:	8fa5      	ldrh	r5, [r4, #60]	; 0x3c
 800104e:	618d      	str	r5, [r1, #24]
 8001050:	6819      	ldr	r1, [r3, #0]
 8001052:	2802      	cmp	r0, #2
 8001054:	f421 412c 	bic.w	r1, r1, #44032	; 0xac00
 8001058:	6019      	str	r1, [r3, #0]
 800105a:	d031      	beq.n	80010c0 <LCD_DrawPixel.part.0+0xdc>
 800105c:	6818      	ldr	r0, [r3, #0]
 800105e:	b2d1      	uxtb	r1, r2
 8001060:	f040 0040 	orr.w	r0, r0, #64	; 0x40
 8001064:	6018      	str	r0, [r3, #0]
 8001066:	60d9      	str	r1, [r3, #12]
 8001068:	6899      	ldr	r1, [r3, #8]
 800106a:	0789      	lsls	r1, r1, #30
 800106c:	d403      	bmi.n	8001076 <LCD_DrawPixel.part.0+0x92>
 800106e:	bf00      	nop
 8001070:	6899      	ldr	r1, [r3, #8]
 8001072:	0789      	lsls	r1, r1, #30
 8001074:	d5fb      	bpl.n	800106e <LCD_DrawPixel.part.0+0x8a>
 8001076:	0a12      	lsrs	r2, r2, #8
 8001078:	60da      	str	r2, [r3, #12]
 800107a:	689a      	ldr	r2, [r3, #8]
 800107c:	0792      	lsls	r2, r2, #30
 800107e:	d407      	bmi.n	8001090 <LCD_DrawPixel.part.0+0xac>
 8001080:	bf00      	nop
 8001082:	689a      	ldr	r2, [r3, #8]
 8001084:	0796      	lsls	r6, r2, #30
 8001086:	d5fb      	bpl.n	8001080 <LCD_DrawPixel.part.0+0x9c>
 8001088:	689a      	ldr	r2, [r3, #8]
 800108a:	0610      	lsls	r0, r2, #24
 800108c:	d503      	bpl.n	8001096 <LCD_DrawPixel.part.0+0xb2>
 800108e:	bf00      	nop
 8001090:	689a      	ldr	r2, [r3, #8]
 8001092:	0610      	lsls	r0, r2, #24
 8001094:	d4fb      	bmi.n	800108e <LCD_DrawPixel.part.0+0xaa>
 8001096:	f894 2641 	ldrb.w	r2, [r4, #1601]	; 0x641
 800109a:	b922      	cbnz	r2, 80010a6 <LCD_DrawPixel.part.0+0xc2>
 800109c:	6c22      	ldr	r2, [r4, #64]	; 0x40
 800109e:	b112      	cbz	r2, 80010a6 <LCD_DrawPixel.part.0+0xc2>
 80010a0:	f8b4 1044 	ldrh.w	r1, [r4, #68]	; 0x44
 80010a4:	6191      	str	r1, [r2, #24]
 80010a6:	681a      	ldr	r2, [r3, #0]
 80010a8:	f022 0240 	bic.w	r2, r2, #64	; 0x40
 80010ac:	601a      	str	r2, [r3, #0]
 80010ae:	bd70      	pop	{r4, r5, r6, pc}
 80010b0:	bf00      	nop
 80010b2:	6a61      	ldr	r1, [r4, #36]	; 0x24
 80010b4:	6809      	ldr	r1, [r1, #0]
 80010b6:	064d      	lsls	r5, r1, #25
 80010b8:	d4fa      	bmi.n	80010b0 <LCD_DrawPixel.part.0+0xcc>
 80010ba:	f894 0048 	ldrb.w	r0, [r4, #72]	; 0x48
 80010be:	e7b8      	b.n	8001032 <LCD_DrawPixel.part.0+0x4e>
 80010c0:	6819      	ldr	r1, [r3, #0]
 80010c2:	f441 6100 	orr.w	r1, r1, #2048	; 0x800
 80010c6:	6019      	str	r1, [r3, #0]
 80010c8:	6819      	ldr	r1, [r3, #0]
 80010ca:	f041 0140 	orr.w	r1, r1, #64	; 0x40
 80010ce:	6019      	str	r1, [r3, #0]
 80010d0:	60da      	str	r2, [r3, #12]
 80010d2:	689a      	ldr	r2, [r3, #8]
 80010d4:	0790      	lsls	r0, r2, #30
 80010d6:	d4db      	bmi.n	8001090 <LCD_DrawPixel.part.0+0xac>
 80010d8:	bf00      	nop
 80010da:	689a      	ldr	r2, [r3, #8]
 80010dc:	0795      	lsls	r5, r2, #30
 80010de:	d5fb      	bpl.n	80010d8 <LCD_DrawPixel.part.0+0xf4>
 80010e0:	e7d6      	b.n	8001090 <LCD_DrawPixel.part.0+0xac>
 80010e2:	bf00      	nop
 80010e4:	fffff800 	.word	0xfffff800

080010e8 <LCD_DisplayAdd>:
 80010e8:	e92d 4ff8 	stmdb	sp!, {r3, r4, r5, r6, r7, r8, r9, sl, fp, lr}
 80010ec:	460c      	mov	r4, r1
 80010ee:	f8bd a028 	ldrh.w	sl, [sp, #40]	; 0x28
 80010f2:	f8bd 902c 	ldrh.w	r9, [sp, #44]	; 0x2c
 80010f6:	f89d 8030 	ldrb.w	r8, [sp, #48]	; 0x30
 80010fa:	f89d b048 	ldrb.w	fp, [sp, #72]	; 0x48
 80010fe:	2900      	cmp	r1, #0
 8001100:	f000 80da 	beq.w	80012b8 <LCD_DisplayAdd+0x1d0>
 8001104:	2100      	movs	r1, #0
 8001106:	4605      	mov	r5, r0
 8001108:	4616      	mov	r6, r2
 800110a:	4620      	mov	r0, r4
 800110c:	f44f 62ca 	mov.w	r2, #1616	; 0x650
 8001110:	461f      	mov	r7, r3
 8001112:	f002 ff81 	bl	8004018 <memset>
 8001116:	f8dd c044 	ldr.w	ip, [sp, #68]	; 0x44
 800111a:	f884 b048 	strb.w	fp, [r4, #72]	; 0x48
 800111e:	e8bc 000f 	ldmia.w	ip!, {r0, r1, r2, r3}
 8001122:	f104 0e24 	add.w	lr, r4, #36	; 0x24
 8001126:	e8ae 000f 	stmia.w	lr!, {r0, r1, r2, r3}
 800112a:	e8bc 000f 	ldmia.w	ip!, {r0, r1, r2, r3}
 800112e:	e8ae 000f 	stmia.w	lr!, {r0, r1, r2, r3}
 8001132:	f8dc 3000 	ldr.w	r3, [ip]
 8001136:	f8ce 3000 	str.w	r3, [lr]
 800113a:	6aa3      	ldr	r3, [r4, #40]	; 0x28
 800113c:	2b00      	cmp	r3, #0
 800113e:	d03c      	beq.n	80011ba <LCD_DisplayAdd+0xd2>
 8001140:	6ae2      	ldr	r2, [r4, #44]	; 0x2c
 8001142:	4968      	ldr	r1, [pc, #416]	; (80012e4 <LCD_DisplayAdd+0x1fc>)
 8001144:	5c89      	ldrb	r1, [r1, r2]
 8001146:	585a      	ldr	r2, [r3, r1]
 8001148:	f022 0201 	bic.w	r2, r2, #1
 800114c:	505a      	str	r2, [r3, r1]
 800114e:	585a      	ldr	r2, [r3, r1]
 8001150:	07d2      	lsls	r2, r2, #31
 8001152:	eb03 0001 	add.w	r0, r3, r1
 8001156:	d505      	bpl.n	8001164 <LCD_DisplayAdd+0x7c>
 8001158:	bf00      	nop
 800115a:	6802      	ldr	r2, [r0, #0]
 800115c:	07d2      	lsls	r2, r2, #31
 800115e:	d4fb      	bmi.n	8001158 <LCD_DisplayAdd+0x70>
 8001160:	f894 b048 	ldrb.w	fp, [r4, #72]	; 0x48
 8001164:	f1bb 0f01 	cmp.w	fp, #1
 8001168:	d00b      	beq.n	8001182 <LCD_DisplayAdd+0x9a>
 800116a:	f1bb 0f02 	cmp.w	fp, #2
 800116e:	d10e      	bne.n	800118e <LCD_DisplayAdd+0xa6>
 8001170:	585a      	ldr	r2, [r3, r1]
 8001172:	f422 42f0 	bic.w	r2, r2, #30720	; 0x7800
 8001176:	505a      	str	r2, [r3, r1]
 8001178:	585a      	ldr	r2, [r3, r1]
 800117a:	f442 5220 	orr.w	r2, r2, #10240	; 0x2800
 800117e:	505a      	str	r2, [r3, r1]
 8001180:	e005      	b.n	800118e <LCD_DisplayAdd+0xa6>
 8001182:	585a      	ldr	r2, [r3, r1]
 8001184:	f422 42f0 	bic.w	r2, r2, #30720	; 0x7800
 8001188:	505a      	str	r2, [r3, r1]
 800118a:	585a      	ldr	r2, [r3, r1]
 800118c:	505a      	str	r2, [r3, r1]
 800118e:	585a      	ldr	r2, [r3, r1]
 8001190:	f422 2280 	bic.w	r2, r2, #262144	; 0x40000
 8001194:	f022 020e 	bic.w	r2, r2, #14
 8001198:	505a      	str	r2, [r3, r1]
 800119a:	6942      	ldr	r2, [r0, #20]
 800119c:	f022 0280 	bic.w	r2, r2, #128	; 0x80
 80011a0:	6142      	str	r2, [r0, #20]
 80011a2:	585a      	ldr	r2, [r3, r1]
 80011a4:	f042 0210 	orr.w	r2, r2, #16
 80011a8:	505a      	str	r2, [r3, r1]
 80011aa:	585a      	ldr	r2, [r3, r1]
 80011ac:	f422 7200 	bic.w	r2, r2, #512	; 0x200
 80011b0:	505a      	str	r2, [r3, r1]
 80011b2:	585a      	ldr	r2, [r3, r1]
 80011b4:	f442 6280 	orr.w	r2, r2, #1024	; 0x400
 80011b8:	505a      	str	r2, [r3, r1]
 80011ba:	42b7      	cmp	r7, r6
 80011bc:	4639      	mov	r1, r7
 80011be:	bf38      	it	cc
 80011c0:	4631      	movcc	r1, r6
 80011c2:	42be      	cmp	r6, r7
 80011c4:	bf28      	it	cs
 80011c6:	463e      	movcs	r6, r7
 80011c8:	f1b8 0f00 	cmp.w	r8, #0
 80011cc:	d143      	bne.n	8001256 <LCD_DisplayAdd+0x16e>
 80011ce:	80a6      	strh	r6, [r4, #4]
 80011d0:	80e1      	strh	r1, [r4, #6]
 80011d2:	f8a4 a000 	strh.w	sl, [r4]
 80011d6:	f8a4 9002 	strh.w	r9, [r4, #2]
 80011da:	f8c4 800a 	str.w	r8, [r4, #10]
 80011de:	4556      	cmp	r6, sl
 80011e0:	d854      	bhi.n	800128c <LCD_DisplayAdd+0x1a4>
 80011e2:	4549      	cmp	r1, r9
 80011e4:	d852      	bhi.n	800128c <LCD_DisplayAdd+0x1a4>
 80011e6:	9b0d      	ldr	r3, [sp, #52]	; 0x34
 80011e8:	2b00      	cmp	r3, #0
 80011ea:	d04f      	beq.n	800128c <LCD_DisplayAdd+0x1a4>
 80011ec:	9b0e      	ldr	r3, [sp, #56]	; 0x38
 80011ee:	2b00      	cmp	r3, #0
 80011f0:	d04c      	beq.n	800128c <LCD_DisplayAdd+0x1a4>
 80011f2:	9a0d      	ldr	r2, [sp, #52]	; 0x34
 80011f4:	6162      	str	r2, [r4, #20]
 80011f6:	9a0e      	ldr	r2, [sp, #56]	; 0x38
 80011f8:	61a2      	str	r2, [r4, #24]
 80011fa:	9a0f      	ldr	r2, [sp, #60]	; 0x3c
 80011fc:	61e2      	str	r2, [r4, #28]
 80011fe:	ab13      	add	r3, sp, #76	; 0x4c
 8001200:	9a10      	ldr	r2, [sp, #64]	; 0x40
 8001202:	6222      	str	r2, [r4, #32]
 8001204:	cb0f      	ldmia	r3, {r0, r1, r2, r3}
 8001206:	f04f 0c00 	mov.w	ip, #0
 800120a:	f104 064c 	add.w	r6, r4, #76	; 0x4c
 800120e:	f104 0760 	add.w	r7, r4, #96	; 0x60
 8001212:	f884 8008 	strb.w	r8, [r4, #8]
 8001216:	e886 000f 	stmia.w	r6, {r0, r1, r2, r3}
 800121a:	f884 c640 	strb.w	ip, [r4, #1600]	; 0x640
 800121e:	f8c4 c64c 	str.w	ip, [r4, #1612]	; 0x64c
 8001222:	f8c4 c648 	str.w	ip, [r4, #1608]	; 0x648
 8001226:	65e7      	str	r7, [r4, #92]	; 0x5c
 8001228:	2d00      	cmp	r5, #0
 800122a:	d045      	beq.n	80012b8 <LCD_DisplayAdd+0x1d0>
 800122c:	f8d5 364c 	ldr.w	r3, [r5, #1612]	; 0x64c
 8001230:	b153      	cbz	r3, 8001248 <LCD_DisplayAdd+0x160>
 8001232:	2201      	movs	r2, #1
 8001234:	461d      	mov	r5, r3
 8001236:	f8d3 364c 	ldr.w	r3, [r3, #1612]	; 0x64c
 800123a:	1c51      	adds	r1, r2, #1
 800123c:	4610      	mov	r0, r2
 800123e:	b2ca      	uxtb	r2, r1
 8001240:	2b00      	cmp	r3, #0
 8001242:	d1f7      	bne.n	8001234 <LCD_DisplayAdd+0x14c>
 8001244:	f884 0640 	strb.w	r0, [r4, #1600]	; 0x640
 8001248:	f8c4 5648 	str.w	r5, [r4, #1608]	; 0x648
 800124c:	4620      	mov	r0, r4
 800124e:	f8c5 464c 	str.w	r4, [r5, #1612]	; 0x64c
 8001252:	e8bd 8ff8 	ldmia.w	sp!, {r3, r4, r5, r6, r7, r8, r9, sl, fp, pc}
 8001256:	f1b8 0f02 	cmp.w	r8, #2
 800125a:	d020      	beq.n	800129e <LCD_DisplayAdd+0x1b6>
 800125c:	f1b8 0f01 	cmp.w	r8, #1
 8001260:	d02d      	beq.n	80012be <LCD_DisplayAdd+0x1d6>
 8001262:	f1b8 0f03 	cmp.w	r8, #3
 8001266:	d111      	bne.n	800128c <LCD_DisplayAdd+0x1a4>
 8001268:	4653      	mov	r3, sl
 800126a:	eba9 0001 	sub.w	r0, r9, r1
 800126e:	4632      	mov	r2, r6
 8001270:	f8a4 9000 	strh.w	r9, [r4]
 8001274:	f8a4 a002 	strh.w	sl, [r4, #2]
 8001278:	46ca      	mov	sl, r9
 800127a:	4699      	mov	r9, r3
 800127c:	2300      	movs	r3, #0
 800127e:	80a1      	strh	r1, [r4, #4]
 8001280:	80e6      	strh	r6, [r4, #6]
 8001282:	8160      	strh	r0, [r4, #10]
 8001284:	460e      	mov	r6, r1
 8001286:	81a3      	strh	r3, [r4, #12]
 8001288:	4611      	mov	r1, r2
 800128a:	e7a8      	b.n	80011de <LCD_DisplayAdd+0xf6>
 800128c:	f44f 62ca 	mov.w	r2, #1616	; 0x650
 8001290:	2100      	movs	r1, #0
 8001292:	4620      	mov	r0, r4
 8001294:	f002 fec0 	bl	8004018 <memset>
 8001298:	2000      	movs	r0, #0
 800129a:	e8bd 8ff8 	ldmia.w	sp!, {r3, r4, r5, r6, r7, r8, r9, sl, fp, pc}
 800129e:	ebaa 0306 	sub.w	r3, sl, r6
 80012a2:	8163      	strh	r3, [r4, #10]
 80012a4:	eba9 0301 	sub.w	r3, r9, r1
 80012a8:	80a6      	strh	r6, [r4, #4]
 80012aa:	80e1      	strh	r1, [r4, #6]
 80012ac:	f8a4 a000 	strh.w	sl, [r4]
 80012b0:	f8a4 9002 	strh.w	r9, [r4, #2]
 80012b4:	81a3      	strh	r3, [r4, #12]
 80012b6:	e792      	b.n	80011de <LCD_DisplayAdd+0xf6>
 80012b8:	4620      	mov	r0, r4
 80012ba:	e8bd 8ff8 	ldmia.w	sp!, {r3, r4, r5, r6, r7, r8, r9, sl, fp, pc}
 80012be:	ebaa 0306 	sub.w	r3, sl, r6
 80012c2:	81a3      	strh	r3, [r4, #12]
 80012c4:	4653      	mov	r3, sl
 80012c6:	4632      	mov	r2, r6
 80012c8:	f8a4 9000 	strh.w	r9, [r4]
 80012cc:	f8a4 a002 	strh.w	sl, [r4, #2]
 80012d0:	46ca      	mov	sl, r9
 80012d2:	4699      	mov	r9, r3
 80012d4:	2300      	movs	r3, #0
 80012d6:	80a1      	strh	r1, [r4, #4]
 80012d8:	80e6      	strh	r6, [r4, #6]
 80012da:	8163      	strh	r3, [r4, #10]
 80012dc:	460e      	mov	r6, r1
 80012de:	4611      	mov	r1, r2
 80012e0:	e77d      	b.n	80011de <LCD_DisplayAdd+0xf6>
 80012e2:	bf00      	nop
 80012e4:	0800527c 	.word	0x0800527c

080012e8 <LCD_Init>:
 80012e8:	6b03      	ldr	r3, [r0, #48]	; 0x30
 80012ea:	b510      	push	{r4, lr}
 80012ec:	4604      	mov	r4, r0
 80012ee:	b15b      	cbz	r3, 8001308 <LCD_Init+0x20>
 80012f0:	8e82      	ldrh	r2, [r0, #52]	; 0x34
 80012f2:	0412      	lsls	r2, r2, #16
 80012f4:	619a      	str	r2, [r3, #24]
 80012f6:	2019      	movs	r0, #25
 80012f8:	f001 face 	bl	8002898 <LL_mDelay>
 80012fc:	6b23      	ldr	r3, [r4, #48]	; 0x30
 80012fe:	8ea2      	ldrh	r2, [r4, #52]	; 0x34
 8001300:	619a      	str	r2, [r3, #24]
 8001302:	2019      	movs	r0, #25
 8001304:	f001 fac8 	bl	8002898 <LL_mDelay>
 8001308:	6963      	ldr	r3, [r4, #20]
 800130a:	7a20      	ldrb	r0, [r4, #8]
 800130c:	4798      	blx	r3
 800130e:	4601      	mov	r1, r0
 8001310:	4620      	mov	r0, r4
 8001312:	f7ff fddb 	bl	8000ecc <LCD_String_Interpretator>
 8001316:	f894 105a 	ldrb.w	r1, [r4, #90]	; 0x5a
 800131a:	6ce2      	ldr	r2, [r4, #76]	; 0x4c
 800131c:	2964      	cmp	r1, #100	; 0x64
 800131e:	460b      	mov	r3, r1
 8001320:	bf28      	it	cs
 8001322:	2364      	movcs	r3, #100	; 0x64
 8001324:	f884 305a 	strb.w	r3, [r4, #90]	; 0x5a
 8001328:	b30a      	cbz	r2, 800136e <LCD_Init+0x86>
 800132a:	6ad1      	ldr	r1, [r2, #44]	; 0x2c
 800132c:	4817      	ldr	r0, [pc, #92]	; (800138c <LCD_Init+0xa4>)
 800132e:	fb01 f303 	mul.w	r3, r1, r3
 8001332:	6d21      	ldr	r1, [r4, #80]	; 0x50
 8001334:	fba0 0303 	umull	r0, r3, r0, r3
 8001338:	f5b1 7f80 	cmp.w	r1, #256	; 0x100
 800133c:	ea4f 1353 	mov.w	r3, r3, lsr #5
 8001340:	d022      	beq.n	8001388 <LCD_Init+0xa0>
 8001342:	d80f      	bhi.n	8001364 <LCD_Init+0x7c>
 8001344:	2901      	cmp	r1, #1
 8001346:	d01a      	beq.n	800137e <LCD_Init+0x96>
 8001348:	2910      	cmp	r1, #16
 800134a:	bf08      	it	eq
 800134c:	6393      	streq	r3, [r2, #56]	; 0x38
 800134e:	6813      	ldr	r3, [r2, #0]
 8001350:	07db      	lsls	r3, r3, #31
 8001352:	d406      	bmi.n	8001362 <LCD_Init+0x7a>
 8001354:	6a13      	ldr	r3, [r2, #32]
 8001356:	4319      	orrs	r1, r3
 8001358:	6211      	str	r1, [r2, #32]
 800135a:	6813      	ldr	r3, [r2, #0]
 800135c:	f043 0301 	orr.w	r3, r3, #1
 8001360:	6013      	str	r3, [r2, #0]
 8001362:	bd10      	pop	{r4, pc}
 8001364:	f5b1 5f80 	cmp.w	r1, #4096	; 0x1000
 8001368:	d1f1      	bne.n	800134e <LCD_Init+0x66>
 800136a:	6413      	str	r3, [r2, #64]	; 0x40
 800136c:	e7ef      	b.n	800134e <LCD_Init+0x66>
 800136e:	6d63      	ldr	r3, [r4, #84]	; 0x54
 8001370:	2b00      	cmp	r3, #0
 8001372:	d0f6      	beq.n	8001362 <LCD_Init+0x7a>
 8001374:	f8b4 2058 	ldrh.w	r2, [r4, #88]	; 0x58
 8001378:	b119      	cbz	r1, 8001382 <LCD_Init+0x9a>
 800137a:	619a      	str	r2, [r3, #24]
 800137c:	bd10      	pop	{r4, pc}
 800137e:	6353      	str	r3, [r2, #52]	; 0x34
 8001380:	e7e5      	b.n	800134e <LCD_Init+0x66>
 8001382:	0412      	lsls	r2, r2, #16
 8001384:	619a      	str	r2, [r3, #24]
 8001386:	e7f9      	b.n	800137c <LCD_Init+0x94>
 8001388:	63d3      	str	r3, [r2, #60]	; 0x3c
 800138a:	e7e0      	b.n	800134e <LCD_Init+0x66>
 800138c:	51eb851f 	.word	0x51eb851f

08001390 <LCD_GetHeight>:
 8001390:	88c0      	ldrh	r0, [r0, #6]
 8001392:	4770      	bx	lr

08001394 <LCD_FillWindow>:
 8001394:	b5f0      	push	{r4, r5, r6, r7, lr}
 8001396:	469c      	mov	ip, r3
 8001398:	b083      	sub	sp, #12
 800139a:	4561      	cmp	r1, ip
 800139c:	f8bd 3020 	ldrh.w	r3, [sp, #32]
 80013a0:	9e09      	ldr	r6, [sp, #36]	; 0x24
 80013a2:	468e      	mov	lr, r1
 80013a4:	4604      	mov	r4, r0
 80013a6:	d901      	bls.n	80013ac <LCD_FillWindow+0x18>
 80013a8:	46e6      	mov	lr, ip
 80013aa:	468c      	mov	ip, r1
 80013ac:	429a      	cmp	r2, r3
 80013ae:	d902      	bls.n	80013b6 <LCD_FillWindow+0x22>
 80013b0:	4611      	mov	r1, r2
 80013b2:	461a      	mov	r2, r3
 80013b4:	460b      	mov	r3, r1
 80013b6:	88a1      	ldrh	r1, [r4, #4]
 80013b8:	4571      	cmp	r1, lr
 80013ba:	f240 8096 	bls.w	80014ea <LCD_FillWindow+0x156>
 80013be:	88e0      	ldrh	r0, [r4, #6]
 80013c0:	4290      	cmp	r0, r2
 80013c2:	f240 8092 	bls.w	80014ea <LCD_FillWindow+0x156>
 80013c6:	4561      	cmp	r1, ip
 80013c8:	bf9c      	itt	ls
 80013ca:	f101 31ff 	addls.w	r1, r1, #4294967295
 80013ce:	fa1f fc81 	uxthls.w	ip, r1
 80013d2:	4298      	cmp	r0, r3
 80013d4:	bf9c      	itt	ls
 80013d6:	f100 30ff 	addls.w	r0, r0, #4294967295
 80013da:	b283      	uxthls	r3, r0
 80013dc:	89a1      	ldrh	r1, [r4, #12]
 80013de:	8960      	ldrh	r0, [r4, #10]
 80013e0:	69a7      	ldr	r7, [r4, #24]
 80013e2:	1a9d      	subs	r5, r3, r2
 80013e4:	440b      	add	r3, r1
 80013e6:	4411      	add	r1, r2
 80013e8:	eb0c 0200 	add.w	r2, ip, r0
 80013ec:	4470      	add	r0, lr
 80013ee:	b29b      	uxth	r3, r3
 80013f0:	ebac 0c0e 	sub.w	ip, ip, lr
 80013f4:	b289      	uxth	r1, r1
 80013f6:	b292      	uxth	r2, r2
 80013f8:	3501      	adds	r5, #1
 80013fa:	b280      	uxth	r0, r0
 80013fc:	fb0c 5505 	mla	r5, ip, r5, r5
 8001400:	47b8      	blx	r7
 8001402:	4601      	mov	r1, r0
 8001404:	4620      	mov	r0, r4
 8001406:	f7ff fd61 	bl	8000ecc <LCD_String_Interpretator>
 800140a:	f894 3641 	ldrb.w	r3, [r4, #1601]	; 0x641
 800140e:	b92b      	cbnz	r3, 800141c <LCD_FillWindow+0x88>
 8001410:	6c22      	ldr	r2, [r4, #64]	; 0x40
 8001412:	b11a      	cbz	r2, 800141c <LCD_FillWindow+0x88>
 8001414:	f8b4 3044 	ldrh.w	r3, [r4, #68]	; 0x44
 8001418:	041b      	lsls	r3, r3, #16
 800141a:	6193      	str	r3, [r2, #24]
 800141c:	f894 3642 	ldrb.w	r3, [r4, #1602]	; 0x642
 8001420:	b913      	cbnz	r3, 8001428 <LCD_FillWindow+0x94>
 8001422:	6ba3      	ldr	r3, [r4, #56]	; 0x38
 8001424:	8fa2      	ldrh	r2, [r4, #60]	; 0x3c
 8001426:	619a      	str	r2, [r3, #24]
 8001428:	4b5d      	ldr	r3, [pc, #372]	; (80015a0 <LCD_FillWindow+0x20c>)
 800142a:	f894 2048 	ldrb.w	r2, [r4, #72]	; 0x48
 800142e:	ea03 2316 	and.w	r3, r3, r6, lsr #8
 8001432:	f3c6 01c4 	ubfx	r1, r6, #3, #5
 8001436:	0976      	lsrs	r6, r6, #5
 8001438:	4319      	orrs	r1, r3
 800143a:	f406 66fc 	and.w	r6, r6, #2016	; 0x7e0
 800143e:	4331      	orrs	r1, r6
 8001440:	2a01      	cmp	r2, #1
 8001442:	6a63      	ldr	r3, [r4, #36]	; 0x24
 8001444:	b289      	uxth	r1, r1
 8001446:	f000 8082 	beq.w	800154e <LCD_FillWindow+0x1ba>
 800144a:	6818      	ldr	r0, [r3, #0]
 800144c:	f8a4 1644 	strh.w	r1, [r4, #1604]	; 0x644
 8001450:	f420 402c 	bic.w	r0, r0, #44032	; 0xac00
 8001454:	6018      	str	r0, [r3, #0]
 8001456:	2a02      	cmp	r2, #2
 8001458:	681a      	ldr	r2, [r3, #0]
 800145a:	d148      	bne.n	80014ee <LCD_FillWindow+0x15a>
 800145c:	f442 6200 	orr.w	r2, r2, #2048	; 0x800
 8001460:	601a      	str	r2, [r3, #0]
 8001462:	681a      	ldr	r2, [r3, #0]
 8001464:	f042 0240 	orr.w	r2, r2, #64	; 0x40
 8001468:	601a      	str	r2, [r3, #0]
 800146a:	6aa2      	ldr	r2, [r4, #40]	; 0x28
 800146c:	2a00      	cmp	r2, #0
 800146e:	f000 8089 	beq.w	8001584 <LCD_FillWindow+0x1f0>
 8001472:	6ae6      	ldr	r6, [r4, #44]	; 0x2c
 8001474:	484b      	ldr	r0, [pc, #300]	; (80015a4 <LCD_FillWindow+0x210>)
 8001476:	494c      	ldr	r1, [pc, #304]	; (80015a8 <LCD_FillWindow+0x214>)
 8001478:	f810 c006 	ldrb.w	ip, [r0, r6]
 800147c:	c903      	ldmia	r1, {r0, r1}
 800147e:	af02      	add	r7, sp, #8
 8001480:	e907 0003 	stmdb	r7, {r0, r1}
 8001484:	f106 0108 	add.w	r1, r6, #8
 8001488:	2e03      	cmp	r6, #3
 800148a:	eb0d 0601 	add.w	r6, sp, r1
 800148e:	4494      	add	ip, r2
 8001490:	f816 0c08 	ldrb.w	r0, [r6, #-8]
 8001494:	bf8c      	ite	hi
 8001496:	320c      	addhi	r2, #12
 8001498:	3208      	addls	r2, #8
 800149a:	213f      	movs	r1, #63	; 0x3f
 800149c:	4081      	lsls	r1, r0
 800149e:	6011      	str	r1, [r2, #0]
 80014a0:	685a      	ldr	r2, [r3, #4]
 80014a2:	f042 0202 	orr.w	r2, r2, #2
 80014a6:	605a      	str	r2, [r3, #4]
 80014a8:	330c      	adds	r3, #12
 80014aa:	f8cc 3008 	str.w	r3, [ip, #8]
 80014ae:	f204 6344 	addw	r3, r4, #1604	; 0x644
 80014b2:	f8cc 300c 	str.w	r3, [ip, #12]
 80014b6:	f8dc 3000 	ldr.w	r3, [ip]
 80014ba:	f423 7300 	bic.w	r3, r3, #512	; 0x200
 80014be:	f8cc 3000 	str.w	r3, [ip]
 80014c2:	f8dc 3000 	ldr.w	r3, [ip]
 80014c6:	f5b5 3f80 	cmp.w	r5, #65536	; 0x10000
 80014ca:	f423 6380 	bic.w	r3, r3, #1024	; 0x400
 80014ce:	f8cc 3000 	str.w	r3, [ip]
 80014d2:	d24d      	bcs.n	8001570 <LCD_FillWindow+0x1dc>
 80014d4:	2300      	movs	r3, #0
 80014d6:	f8cc 5004 	str.w	r5, [ip, #4]
 80014da:	f8c4 363c 	str.w	r3, [r4, #1596]	; 0x63c
 80014de:	f8dc 3000 	ldr.w	r3, [ip]
 80014e2:	f043 0301 	orr.w	r3, r3, #1
 80014e6:	f8cc 3000 	str.w	r3, [ip]
 80014ea:	b003      	add	sp, #12
 80014ec:	bdf0      	pop	{r4, r5, r6, r7, pc}
 80014ee:	f042 0240 	orr.w	r2, r2, #64	; 0x40
 80014f2:	601a      	str	r2, [r3, #0]
 80014f4:	6aa2      	ldr	r2, [r4, #40]	; 0x28
 80014f6:	2a00      	cmp	r2, #0
 80014f8:	d1bb      	bne.n	8001472 <LCD_FillWindow+0xde>
 80014fa:	b2c8      	uxtb	r0, r1
 80014fc:	0a09      	lsrs	r1, r1, #8
 80014fe:	b1ad      	cbz	r5, 800152c <LCD_FillWindow+0x198>
 8001500:	60d8      	str	r0, [r3, #12]
 8001502:	689a      	ldr	r2, [r3, #8]
 8001504:	0796      	lsls	r6, r2, #30
 8001506:	d403      	bmi.n	8001510 <LCD_FillWindow+0x17c>
 8001508:	bf00      	nop
 800150a:	689a      	ldr	r2, [r3, #8]
 800150c:	0797      	lsls	r7, r2, #30
 800150e:	d5fb      	bpl.n	8001508 <LCD_FillWindow+0x174>
 8001510:	60d9      	str	r1, [r3, #12]
 8001512:	689a      	ldr	r2, [r3, #8]
 8001514:	0792      	lsls	r2, r2, #30
 8001516:	d403      	bmi.n	8001520 <LCD_FillWindow+0x18c>
 8001518:	bf00      	nop
 800151a:	689a      	ldr	r2, [r3, #8]
 800151c:	0796      	lsls	r6, r2, #30
 800151e:	d5fb      	bpl.n	8001518 <LCD_FillWindow+0x184>
 8001520:	3d01      	subs	r5, #1
 8001522:	d1ed      	bne.n	8001500 <LCD_FillWindow+0x16c>
 8001524:	689a      	ldr	r2, [r3, #8]
 8001526:	0612      	lsls	r2, r2, #24
 8001528:	d503      	bpl.n	8001532 <LCD_FillWindow+0x19e>
 800152a:	bf00      	nop
 800152c:	689a      	ldr	r2, [r3, #8]
 800152e:	0612      	lsls	r2, r2, #24
 8001530:	d4fb      	bmi.n	800152a <LCD_FillWindow+0x196>
 8001532:	f894 2641 	ldrb.w	r2, [r4, #1601]	; 0x641
 8001536:	b922      	cbnz	r2, 8001542 <LCD_FillWindow+0x1ae>
 8001538:	6c22      	ldr	r2, [r4, #64]	; 0x40
 800153a:	b112      	cbz	r2, 8001542 <LCD_FillWindow+0x1ae>
 800153c:	f8b4 1044 	ldrh.w	r1, [r4, #68]	; 0x44
 8001540:	6191      	str	r1, [r2, #24]
 8001542:	681a      	ldr	r2, [r3, #0]
 8001544:	f022 0240 	bic.w	r2, r2, #64	; 0x40
 8001548:	601a      	str	r2, [r3, #0]
 800154a:	b003      	add	sp, #12
 800154c:	bdf0      	pop	{r4, r5, r6, r7, pc}
 800154e:	681a      	ldr	r2, [r3, #0]
 8001550:	ba49      	rev16	r1, r1
 8001552:	f422 422c 	bic.w	r2, r2, #44032	; 0xac00
 8001556:	f8a4 1644 	strh.w	r1, [r4, #1604]	; 0x644
 800155a:	601a      	str	r2, [r3, #0]
 800155c:	681a      	ldr	r2, [r3, #0]
 800155e:	f042 0240 	orr.w	r2, r2, #64	; 0x40
 8001562:	601a      	str	r2, [r3, #0]
 8001564:	6aa2      	ldr	r2, [r4, #40]	; 0x28
 8001566:	b289      	uxth	r1, r1
 8001568:	2a00      	cmp	r2, #0
 800156a:	d0c6      	beq.n	80014fa <LCD_FillWindow+0x166>
 800156c:	006d      	lsls	r5, r5, #1
 800156e:	e780      	b.n	8001472 <LCD_FillWindow+0xde>
 8001570:	f5a5 457f 	sub.w	r5, r5, #65280	; 0xff00
 8001574:	f64f 73ff 	movw	r3, #65535	; 0xffff
 8001578:	3dff      	subs	r5, #255	; 0xff
 800157a:	f8cc 3004 	str.w	r3, [ip, #4]
 800157e:	f8c4 563c 	str.w	r5, [r4, #1596]	; 0x63c
 8001582:	e7ac      	b.n	80014de <LCD_FillWindow+0x14a>
 8001584:	2d00      	cmp	r5, #0
 8001586:	d0d1      	beq.n	800152c <LCD_FillWindow+0x198>
 8001588:	60d9      	str	r1, [r3, #12]
 800158a:	689a      	ldr	r2, [r3, #8]
 800158c:	0792      	lsls	r2, r2, #30
 800158e:	d403      	bmi.n	8001598 <LCD_FillWindow+0x204>
 8001590:	bf00      	nop
 8001592:	689a      	ldr	r2, [r3, #8]
 8001594:	0797      	lsls	r7, r2, #30
 8001596:	d5fb      	bpl.n	8001590 <LCD_FillWindow+0x1fc>
 8001598:	3d01      	subs	r5, #1
 800159a:	d1f5      	bne.n	8001588 <LCD_FillWindow+0x1f4>
 800159c:	e7c6      	b.n	800152c <LCD_FillWindow+0x198>
 800159e:	bf00      	nop
 80015a0:	fffff800 	.word	0xfffff800
 80015a4:	0800527c 	.word	0x0800527c
 80015a8:	08005160 	.word	0x08005160

080015ac <LCD_Fill>:
 80015ac:	b510      	push	{r4, lr}
 80015ae:	88c4      	ldrh	r4, [r0, #6]
 80015b0:	8883      	ldrh	r3, [r0, #4]
 80015b2:	3c01      	subs	r4, #1
 80015b4:	b082      	sub	sp, #8
 80015b6:	2200      	movs	r2, #0
 80015b8:	b2a4      	uxth	r4, r4
 80015ba:	3b01      	subs	r3, #1
 80015bc:	e9cd 4100 	strd	r4, r1, [sp]
 80015c0:	b29b      	uxth	r3, r3
 80015c2:	4611      	mov	r1, r2
 80015c4:	f7ff fee6 	bl	8001394 <LCD_FillWindow>
 80015c8:	b002      	add	sp, #8
 80015ca:	bd10      	pop	{r4, pc}

080015cc <LCD_DrawPixel>:
 80015cc:	b530      	push	{r4, r5, lr}
 80015ce:	8885      	ldrh	r5, [r0, #4]
 80015d0:	428d      	cmp	r5, r1
 80015d2:	dd0b      	ble.n	80015ec <LCD_DrawPixel+0x20>
 80015d4:	88c5      	ldrh	r5, [r0, #6]
 80015d6:	4295      	cmp	r5, r2
 80015d8:	dd08      	ble.n	80015ec <LCD_DrawPixel+0x20>
 80015da:	2900      	cmp	r1, #0
 80015dc:	468e      	mov	lr, r1
 80015de:	db05      	blt.n	80015ec <LCD_DrawPixel+0x20>
 80015e0:	2a00      	cmp	r2, #0
 80015e2:	db03      	blt.n	80015ec <LCD_DrawPixel+0x20>
 80015e4:	e8bd 4030 	ldmia.w	sp!, {r4, r5, lr}
 80015e8:	f7ff bcfc 	b.w	8000fe4 <LCD_DrawPixel.part.0>
 80015ec:	bd30      	pop	{r4, r5, pc}
 80015ee:	bf00      	nop

080015f0 <LCD_DrawLine>:
 80015f0:	e92d 4ff0 	stmdb	sp!, {r4, r5, r6, r7, r8, r9, sl, fp, lr}
 80015f4:	461f      	mov	r7, r3
 80015f6:	b083      	sub	sp, #12
 80015f8:	42b9      	cmp	r1, r7
 80015fa:	f9bd 3030 	ldrsh.w	r3, [sp, #48]	; 0x30
 80015fe:	f8dd b034 	ldr.w	fp, [sp, #52]	; 0x34
 8001602:	460d      	mov	r5, r1
 8001604:	4616      	mov	r6, r2
 8001606:	f000 8099 	beq.w	800173c <LCD_DrawLine+0x14c>
 800160a:	429a      	cmp	r2, r3
 800160c:	d07a      	beq.n	8001704 <LCD_DrawLine+0x114>
 800160e:	1a99      	subs	r1, r3, r2
 8001610:	2900      	cmp	r1, #0
 8001612:	eba7 0205 	sub.w	r2, r7, r5
 8001616:	bfb8      	it	lt
 8001618:	4249      	neglt	r1, r1
 800161a:	2a00      	cmp	r2, #0
 800161c:	bfb8      	it	lt
 800161e:	4252      	neglt	r2, r2
 8001620:	4291      	cmp	r1, r2
 8001622:	469c      	mov	ip, r3
 8001624:	4634      	mov	r4, r6
 8001626:	46b8      	mov	r8, r7
 8001628:	46ae      	mov	lr, r5
 800162a:	f340 808c 	ble.w	8001746 <LCD_DrawLine+0x156>
 800162e:	46bc      	mov	ip, r7
 8001630:	462c      	mov	r4, r5
 8001632:	461f      	mov	r7, r3
 8001634:	4635      	mov	r5, r6
 8001636:	4643      	mov	r3, r8
 8001638:	4676      	mov	r6, lr
 800163a:	4690      	mov	r8, r2
 800163c:	42bd      	cmp	r5, r7
 800163e:	dd0b      	ble.n	8001658 <LCD_DrawLine+0x68>
 8001640:	eba4 040c 	sub.w	r4, r4, ip
 8001644:	46b6      	mov	lr, r6
 8001646:	46ac      	mov	ip, r5
 8001648:	ea84 78e4 	eor.w	r8, r4, r4, asr #31
 800164c:	461e      	mov	r6, r3
 800164e:	463d      	mov	r5, r7
 8001650:	eba8 78e4 	sub.w	r8, r8, r4, asr #31
 8001654:	4673      	mov	r3, lr
 8001656:	4667      	mov	r7, ip
 8001658:	eba7 0905 	sub.w	r9, r7, r5
 800165c:	f3c9 34c0 	ubfx	r4, r9, #15, #1
 8001660:	f64f 7aff 	movw	sl, #65535	; 0xffff
 8001664:	fa04 f489 	sxtah	r4, r4, r9
 8001668:	429e      	cmp	r6, r3
 800166a:	bfb8      	it	lt
 800166c:	f04f 0a01 	movlt.w	sl, #1
 8001670:	4291      	cmp	r1, r2
 8001672:	fa1f f888 	uxth.w	r8, r8
 8001676:	fa1f f989 	uxth.w	r9, r9
 800167a:	ea4f 0464 	mov.w	r4, r4, asr #1
 800167e:	dc34      	bgt.n	80016ea <LCD_DrawLine+0xfa>
 8001680:	8883      	ldrh	r3, [r0, #4]
 8001682:	429d      	cmp	r5, r3
 8001684:	da0d      	bge.n	80016a2 <LCD_DrawLine+0xb2>
 8001686:	88c3      	ldrh	r3, [r0, #6]
 8001688:	429e      	cmp	r6, r3
 800168a:	da0a      	bge.n	80016a2 <LCD_DrawLine+0xb2>
 800168c:	2d00      	cmp	r5, #0
 800168e:	4632      	mov	r2, r6
 8001690:	465b      	mov	r3, fp
 8001692:	db06      	blt.n	80016a2 <LCD_DrawLine+0xb2>
 8001694:	2e00      	cmp	r6, #0
 8001696:	db04      	blt.n	80016a2 <LCD_DrawLine+0xb2>
 8001698:	4629      	mov	r1, r5
 800169a:	9001      	str	r0, [sp, #4]
 800169c:	f7ff fca2 	bl	8000fe4 <LCD_DrawPixel.part.0>
 80016a0:	9801      	ldr	r0, [sp, #4]
 80016a2:	eba4 0308 	sub.w	r3, r4, r8
 80016a6:	b21c      	sxth	r4, r3
 80016a8:	3501      	adds	r5, #1
 80016aa:	2c00      	cmp	r4, #0
 80016ac:	b22d      	sxth	r5, r5
 80016ae:	b29b      	uxth	r3, r3
 80016b0:	da03      	bge.n	80016ba <LCD_DrawLine+0xca>
 80016b2:	4456      	add	r6, sl
 80016b4:	444b      	add	r3, r9
 80016b6:	b236      	sxth	r6, r6
 80016b8:	b21c      	sxth	r4, r3
 80016ba:	42bd      	cmp	r5, r7
 80016bc:	dde0      	ble.n	8001680 <LCD_DrawLine+0x90>
 80016be:	b003      	add	sp, #12
 80016c0:	e8bd 8ff0 	ldmia.w	sp!, {r4, r5, r6, r7, r8, r9, sl, fp, pc}
 80016c4:	4631      	mov	r1, r6
 80016c6:	9001      	str	r0, [sp, #4]
 80016c8:	f7ff fc8c 	bl	8000fe4 <LCD_DrawPixel.part.0>
 80016cc:	9801      	ldr	r0, [sp, #4]
 80016ce:	eba4 0308 	sub.w	r3, r4, r8
 80016d2:	b21c      	sxth	r4, r3
 80016d4:	3501      	adds	r5, #1
 80016d6:	2c00      	cmp	r4, #0
 80016d8:	b22d      	sxth	r5, r5
 80016da:	b29b      	uxth	r3, r3
 80016dc:	da03      	bge.n	80016e6 <LCD_DrawLine+0xf6>
 80016de:	4456      	add	r6, sl
 80016e0:	444b      	add	r3, r9
 80016e2:	b236      	sxth	r6, r6
 80016e4:	b21c      	sxth	r4, r3
 80016e6:	42bd      	cmp	r5, r7
 80016e8:	dce9      	bgt.n	80016be <LCD_DrawLine+0xce>
 80016ea:	8883      	ldrh	r3, [r0, #4]
 80016ec:	42b3      	cmp	r3, r6
 80016ee:	ddee      	ble.n	80016ce <LCD_DrawLine+0xde>
 80016f0:	88c3      	ldrh	r3, [r0, #6]
 80016f2:	42ab      	cmp	r3, r5
 80016f4:	ddeb      	ble.n	80016ce <LCD_DrawLine+0xde>
 80016f6:	2e00      	cmp	r6, #0
 80016f8:	462a      	mov	r2, r5
 80016fa:	465b      	mov	r3, fp
 80016fc:	dbe7      	blt.n	80016ce <LCD_DrawLine+0xde>
 80016fe:	2d00      	cmp	r5, #0
 8001700:	dae0      	bge.n	80016c4 <LCD_DrawLine+0xd4>
 8001702:	e7e4      	b.n	80016ce <LCD_DrawLine+0xde>
 8001704:	42b9      	cmp	r1, r7
 8001706:	dd20      	ble.n	800174a <LCD_DrawLine+0x15a>
 8001708:	2d00      	cmp	r5, #0
 800170a:	dbd8      	blt.n	80016be <LCD_DrawLine+0xce>
 800170c:	8882      	ldrh	r2, [r0, #4]
 800170e:	42ba      	cmp	r2, r7
 8001710:	ddd5      	ble.n	80016be <LCD_DrawLine+0xce>
 8001712:	2b00      	cmp	r3, #0
 8001714:	dbd3      	blt.n	80016be <LCD_DrawLine+0xce>
 8001716:	88c2      	ldrh	r2, [r0, #6]
 8001718:	42b2      	cmp	r2, r6
 800171a:	ddd0      	ble.n	80016be <LCD_DrawLine+0xce>
 800171c:	ea26 72e6 	bic.w	r2, r6, r6, asr #31
 8001720:	ea27 71e7 	bic.w	r1, r7, r7, asr #31
 8001724:	b29b      	uxth	r3, r3
 8001726:	930c      	str	r3, [sp, #48]	; 0x30
 8001728:	b292      	uxth	r2, r2
 800172a:	b2ab      	uxth	r3, r5
 800172c:	b289      	uxth	r1, r1
 800172e:	f8cd b034 	str.w	fp, [sp, #52]	; 0x34
 8001732:	b003      	add	sp, #12
 8001734:	e8bd 4ff0 	ldmia.w	sp!, {r4, r5, r6, r7, r8, r9, sl, fp, lr}
 8001738:	f7ff be2c 	b.w	8001394 <LCD_FillWindow>
 800173c:	429a      	cmp	r2, r3
 800173e:	dde3      	ble.n	8001708 <LCD_DrawLine+0x118>
 8001740:	461e      	mov	r6, r3
 8001742:	4613      	mov	r3, r2
 8001744:	e7e0      	b.n	8001708 <LCD_DrawLine+0x118>
 8001746:	4688      	mov	r8, r1
 8001748:	e778      	b.n	800163c <LCD_DrawLine+0x4c>
 800174a:	463a      	mov	r2, r7
 800174c:	4615      	mov	r5, r2
 800174e:	460f      	mov	r7, r1
 8001750:	e7da      	b.n	8001708 <LCD_DrawLine+0x118>
 8001752:	bf00      	nop

08001754 <LCD_DrawRectangle>:
 8001754:	e92d 43f0 	stmdb	sp!, {r4, r5, r6, r7, r8, r9, lr}
 8001758:	b083      	sub	sp, #12
 800175a:	4604      	mov	r4, r0
 800175c:	f8dd 902c 	ldr.w	r9, [sp, #44]	; 0x2c
 8001760:	f9bd 8028 	ldrsh.w	r8, [sp, #40]	; 0x28
 8001764:	9200      	str	r2, [sp, #0]
 8001766:	460e      	mov	r6, r1
 8001768:	4615      	mov	r5, r2
 800176a:	f8cd 9004 	str.w	r9, [sp, #4]
 800176e:	461f      	mov	r7, r3
 8001770:	f7ff ff3e 	bl	80015f0 <LCD_DrawLine>
 8001774:	4633      	mov	r3, r6
 8001776:	462a      	mov	r2, r5
 8001778:	4631      	mov	r1, r6
 800177a:	4620      	mov	r0, r4
 800177c:	e9cd 8900 	strd	r8, r9, [sp]
 8001780:	f7ff ff36 	bl	80015f0 <LCD_DrawLine>
 8001784:	4631      	mov	r1, r6
 8001786:	463b      	mov	r3, r7
 8001788:	4642      	mov	r2, r8
 800178a:	4620      	mov	r0, r4
 800178c:	e9cd 8900 	strd	r8, r9, [sp]
 8001790:	f7ff ff2e 	bl	80015f0 <LCD_DrawLine>
 8001794:	463b      	mov	r3, r7
 8001796:	462a      	mov	r2, r5
 8001798:	4639      	mov	r1, r7
 800179a:	4620      	mov	r0, r4
 800179c:	e9cd 890a 	strd	r8, r9, [sp, #40]	; 0x28
 80017a0:	b003      	add	sp, #12
 80017a2:	e8bd 43f0 	ldmia.w	sp!, {r4, r5, r6, r7, r8, r9, lr}
 80017a6:	f7ff bf23 	b.w	80015f0 <LCD_DrawLine>
 80017aa:	bf00      	nop

080017ac <LCD_DrawFilledRectangle>:
 80017ac:	b430      	push	{r4, r5}
 80017ae:	4299      	cmp	r1, r3
 80017b0:	f9bd c008 	ldrsh.w	ip, [sp, #8]
 80017b4:	9d03      	ldr	r5, [sp, #12]
 80017b6:	dd02      	ble.n	80017be <LCD_DrawFilledRectangle+0x12>
 80017b8:	460c      	mov	r4, r1
 80017ba:	4619      	mov	r1, r3
 80017bc:	4623      	mov	r3, r4
 80017be:	4562      	cmp	r2, ip
 80017c0:	dd02      	ble.n	80017c8 <LCD_DrawFilledRectangle+0x1c>
 80017c2:	4614      	mov	r4, r2
 80017c4:	4662      	mov	r2, ip
 80017c6:	46a4      	mov	ip, r4
 80017c8:	2b00      	cmp	r3, #0
 80017ca:	db08      	blt.n	80017de <LCD_DrawFilledRectangle+0x32>
 80017cc:	8884      	ldrh	r4, [r0, #4]
 80017ce:	428c      	cmp	r4, r1
 80017d0:	dd05      	ble.n	80017de <LCD_DrawFilledRectangle+0x32>
 80017d2:	f1bc 0f00 	cmp.w	ip, #0
 80017d6:	db02      	blt.n	80017de <LCD_DrawFilledRectangle+0x32>
 80017d8:	88c4      	ldrh	r4, [r0, #6]
 80017da:	4294      	cmp	r4, r2
 80017dc:	dc01      	bgt.n	80017e2 <LCD_DrawFilledRectangle+0x36>
 80017de:	bc30      	pop	{r4, r5}
 80017e0:	4770      	bx	lr
 80017e2:	fa1f f48c 	uxth.w	r4, ip
 80017e6:	ea22 72e2 	bic.w	r2, r2, r2, asr #31
 80017ea:	ea21 71e1 	bic.w	r1, r1, r1, asr #31
 80017ee:	9503      	str	r5, [sp, #12]
 80017f0:	9402      	str	r4, [sp, #8]
 80017f2:	b29b      	uxth	r3, r3
 80017f4:	bc30      	pop	{r4, r5}
 80017f6:	b292      	uxth	r2, r2
 80017f8:	b289      	uxth	r1, r1
 80017fa:	f7ff bdcb 	b.w	8001394 <LCD_FillWindow>
 80017fe:	bf00      	nop

08001800 <LCD_DrawFilledTriangle>:
 8001800:	e92d 4ff0 	stmdb	sp!, {r4, r5, r6, r7, r8, r9, sl, fp, lr}
 8001804:	b099      	sub	sp, #100	; 0x64
 8001806:	4615      	mov	r5, r2
 8001808:	f9bd 7088 	ldrsh.w	r7, [sp, #136]	; 0x88
 800180c:	f9bd 908c 	ldrsh.w	r9, [sp, #140]	; 0x8c
 8001810:	f9bd 6090 	ldrsh.w	r6, [sp, #144]	; 0x90
 8001814:	9007      	str	r0, [sp, #28]
 8001816:	42ba      	cmp	r2, r7
 8001818:	4688      	mov	r8, r1
 800181a:	469a      	mov	sl, r3
 800181c:	f300 80e0 	bgt.w	80019e0 <LCD_DrawFilledTriangle+0x1e0>
 8001820:	42b2      	cmp	r2, r6
 8001822:	f300 80e6 	bgt.w	80019f2 <LCD_DrawFilledTriangle+0x1f2>
 8001826:	42be      	cmp	r6, r7
 8001828:	f2c0 80ea 	blt.w	8001a00 <LCD_DrawFilledTriangle+0x200>
 800182c:	9907      	ldr	r1, [sp, #28]
 800182e:	88cb      	ldrh	r3, [r1, #6]
 8001830:	42ab      	cmp	r3, r5
 8001832:	f340 80d2 	ble.w	80019da <LCD_DrawFilledTriangle+0x1da>
 8001836:	2e00      	cmp	r6, #0
 8001838:	f2c0 80cf 	blt.w	80019da <LCD_DrawFilledTriangle+0x1da>
 800183c:	45c2      	cmp	sl, r8
 800183e:	4652      	mov	r2, sl
 8001840:	bfb8      	it	lt
 8001842:	4642      	movlt	r2, r8
 8001844:	b212      	sxth	r2, r2
 8001846:	454a      	cmp	r2, r9
 8001848:	920f      	str	r2, [sp, #60]	; 0x3c
 800184a:	bfb8      	it	lt
 800184c:	464a      	movlt	r2, r9
 800184e:	0412      	lsls	r2, r2, #16
 8001850:	f100 80c3 	bmi.w	80019da <LCD_DrawFilledTriangle+0x1da>
 8001854:	45c2      	cmp	sl, r8
 8001856:	4652      	mov	r2, sl
 8001858:	bfa8      	it	ge
 800185a:	4642      	movge	r2, r8
 800185c:	b212      	sxth	r2, r2
 800185e:	454a      	cmp	r2, r9
 8001860:	920d      	str	r2, [sp, #52]	; 0x34
 8001862:	8889      	ldrh	r1, [r1, #4]
 8001864:	bfa8      	it	ge
 8001866:	464a      	movge	r2, r9
 8001868:	b212      	sxth	r2, r2
 800186a:	4291      	cmp	r1, r2
 800186c:	f340 80b5 	ble.w	80019da <LCD_DrawFilledTriangle+0x1da>
 8001870:	ea25 74e5 	bic.w	r4, r5, r5, asr #31
 8001874:	42b3      	cmp	r3, r6
 8001876:	b224      	sxth	r4, r4
 8001878:	f340 8107 	ble.w	8001a8a <LCD_DrawFilledTriangle+0x28a>
 800187c:	9608      	str	r6, [sp, #32]
 800187e:	4633      	mov	r3, r6
 8001880:	42a3      	cmp	r3, r4
 8001882:	f340 80aa 	ble.w	80019da <LCD_DrawFilledTriangle+0x1da>
 8001886:	eba8 0309 	sub.w	r3, r8, r9
 800188a:	461a      	mov	r2, r3
 800188c:	930c      	str	r3, [sp, #48]	; 0x30
 800188e:	1ba3      	subs	r3, r4, r6
 8001890:	fb02 f103 	mul.w	r1, r2, r3
 8001894:	eba9 030a 	sub.w	r3, r9, sl
 8001898:	461a      	mov	r2, r3
 800189a:	930b      	str	r3, [sp, #44]	; 0x2c
 800189c:	1be3      	subs	r3, r4, r7
 800189e:	fb02 f303 	mul.w	r3, r2, r3
 80018a2:	9303      	str	r3, [sp, #12]
 80018a4:	ebaa 0308 	sub.w	r3, sl, r8
 80018a8:	461a      	mov	r2, r3
 80018aa:	45ca      	cmp	sl, r9
 80018ac:	930a      	str	r3, [sp, #40]	; 0x28
 80018ae:	eba4 0305 	sub.w	r3, r4, r5
 80018b2:	fb02 fb03 	mul.w	fp, r2, r3
 80018b6:	4652      	mov	r2, sl
 80018b8:	bfa8      	it	ge
 80018ba:	464a      	movge	r2, r9
 80018bc:	42b7      	cmp	r7, r6
 80018be:	463b      	mov	r3, r7
 80018c0:	bfa8      	it	ge
 80018c2:	4633      	movge	r3, r6
 80018c4:	b21b      	sxth	r3, r3
 80018c6:	45ca      	cmp	sl, r9
 80018c8:	9311      	str	r3, [sp, #68]	; 0x44
 80018ca:	b213      	sxth	r3, r2
 80018cc:	930e      	str	r3, [sp, #56]	; 0x38
 80018ce:	4653      	mov	r3, sl
 80018d0:	bfb8      	it	lt
 80018d2:	464b      	movlt	r3, r9
 80018d4:	42b7      	cmp	r7, r6
 80018d6:	9310      	str	r3, [sp, #64]	; 0x40
 80018d8:	463b      	mov	r3, r7
 80018da:	bfb8      	it	lt
 80018dc:	4633      	movlt	r3, r6
 80018de:	f8cd a014 	str.w	sl, [sp, #20]
 80018e2:	9213      	str	r2, [sp, #76]	; 0x4c
 80018e4:	9312      	str	r3, [sp, #72]	; 0x48
 80018e6:	468a      	mov	sl, r1
 80018e8:	42af      	cmp	r7, r5
 80018ea:	f000 80d2 	beq.w	8001a92 <LCD_DrawFilledTriangle+0x292>
 80018ee:	9b05      	ldr	r3, [sp, #20]
 80018f0:	4543      	cmp	r3, r8
 80018f2:	f000 8128 	beq.w	8001b46 <LCD_DrawFilledTriangle+0x346>
 80018f6:	1b7b      	subs	r3, r7, r5
 80018f8:	fb9b f3f3 	sdiv	r3, fp, r3
 80018fc:	4443      	add	r3, r8
 80018fe:	b21b      	sxth	r3, r3
 8001900:	2200      	movs	r2, #0
 8001902:	f363 020f 	bfi	r2, r3, #0, #16
 8001906:	f363 421f 	bfi	r2, r3, #16, #16
 800190a:	9214      	str	r2, [sp, #80]	; 0x50
 800190c:	9a0d      	ldr	r2, [sp, #52]	; 0x34
 800190e:	429a      	cmp	r2, r3
 8001910:	dc03      	bgt.n	800191a <LCD_DrawFilledTriangle+0x11a>
 8001912:	9a0f      	ldr	r2, [sp, #60]	; 0x3c
 8001914:	429a      	cmp	r2, r3
 8001916:	f280 812d 	bge.w	8001b74 <LCD_DrawFilledTriangle+0x374>
 800191a:	2203      	movs	r2, #3
 800191c:	f04f 0c02 	mov.w	ip, #2
 8001920:	2300      	movs	r3, #0
 8001922:	9209      	str	r2, [sp, #36]	; 0x24
 8001924:	2201      	movs	r2, #1
 8001926:	46e6      	mov	lr, ip
 8001928:	9204      	str	r2, [sp, #16]
 800192a:	4618      	mov	r0, r3
 800192c:	42b7      	cmp	r7, r6
 800192e:	f000 80db 	beq.w	8001ae8 <LCD_DrawFilledTriangle+0x2e8>
 8001932:	9a05      	ldr	r2, [sp, #20]
 8001934:	454a      	cmp	r2, r9
 8001936:	f000 80ec 	beq.w	8001b12 <LCD_DrawFilledTriangle+0x312>
 800193a:	9903      	ldr	r1, [sp, #12]
 800193c:	1bf2      	subs	r2, r6, r7
 800193e:	fb91 f2f2 	sdiv	r2, r1, r2
 8001942:	9905      	ldr	r1, [sp, #20]
 8001944:	440a      	add	r2, r1
 8001946:	b212      	sxth	r2, r2
 8001948:	9206      	str	r2, [sp, #24]
 800194a:	9a04      	ldr	r2, [sp, #16]
 800194c:	a918      	add	r1, sp, #96	; 0x60
 800194e:	eb01 0142 	add.w	r1, r1, r2, lsl #1
 8001952:	9a06      	ldr	r2, [sp, #24]
 8001954:	f821 2c10 	strh.w	r2, [r1, #-16]
 8001958:	a918      	add	r1, sp, #96	; 0x60
 800195a:	eb01 0143 	add.w	r1, r1, r3, lsl #1
 800195e:	f821 2c10 	strh.w	r2, [r1, #-16]
 8001962:	990e      	ldr	r1, [sp, #56]	; 0x38
 8001964:	428a      	cmp	r2, r1
 8001966:	db07      	blt.n	8001978 <LCD_DrawFilledTriangle+0x178>
 8001968:	f9bd 1040 	ldrsh.w	r1, [sp, #64]	; 0x40
 800196c:	428a      	cmp	r2, r1
 800196e:	dc03      	bgt.n	8001978 <LCD_DrawFilledTriangle+0x178>
 8001970:	9b09      	ldr	r3, [sp, #36]	; 0x24
 8001972:	9304      	str	r3, [sp, #16]
 8001974:	4670      	mov	r0, lr
 8001976:	4663      	mov	r3, ip
 8001978:	42ae      	cmp	r6, r5
 800197a:	f000 809f 	beq.w	8001abc <LCD_DrawFilledTriangle+0x2bc>
 800197e:	45c1      	cmp	r9, r8
 8001980:	d04a      	beq.n	8001a18 <LCD_DrawFilledTriangle+0x218>
 8001982:	9904      	ldr	r1, [sp, #16]
 8001984:	aa18      	add	r2, sp, #96	; 0x60
 8001986:	eb02 0343 	add.w	r3, r2, r3, lsl #1
 800198a:	eb02 0141 	add.w	r1, r2, r1, lsl #1
 800198e:	1baa      	subs	r2, r5, r6
 8001990:	fb9a f2f2 	sdiv	r2, sl, r2
 8001994:	444a      	add	r2, r9
 8001996:	b212      	sxth	r2, r2
 8001998:	45c1      	cmp	r9, r8
 800199a:	f821 2c10 	strh.w	r2, [r1, #-16]
 800199e:	f823 2c10 	strh.w	r2, [r3, #-16]
 80019a2:	464b      	mov	r3, r9
 80019a4:	bfa8      	it	ge
 80019a6:	4643      	movge	r3, r8
 80019a8:	b21b      	sxth	r3, r3
 80019aa:	429a      	cmp	r2, r3
 80019ac:	db06      	blt.n	80019bc <LCD_DrawFilledTriangle+0x1bc>
 80019ae:	45c1      	cmp	r9, r8
 80019b0:	464b      	mov	r3, r9
 80019b2:	bfb8      	it	lt
 80019b4:	4643      	movlt	r3, r8
 80019b6:	b21b      	sxth	r3, r3
 80019b8:	429a      	cmp	r2, r3
 80019ba:	dd45      	ble.n	8001a48 <LCD_DrawFilledTriangle+0x248>
 80019bc:	2800      	cmp	r0, #0
 80019be:	d145      	bne.n	8001a4c <LCD_DrawFilledTriangle+0x24c>
 80019c0:	9b0c      	ldr	r3, [sp, #48]	; 0x30
 80019c2:	9a0b      	ldr	r2, [sp, #44]	; 0x2c
 80019c4:	449a      	add	sl, r3
 80019c6:	9b03      	ldr	r3, [sp, #12]
 80019c8:	4413      	add	r3, r2
 80019ca:	9303      	str	r3, [sp, #12]
 80019cc:	9b0a      	ldr	r3, [sp, #40]	; 0x28
 80019ce:	3401      	adds	r4, #1
 80019d0:	449b      	add	fp, r3
 80019d2:	9b08      	ldr	r3, [sp, #32]
 80019d4:	b224      	sxth	r4, r4
 80019d6:	42a3      	cmp	r3, r4
 80019d8:	d186      	bne.n	80018e8 <LCD_DrawFilledTriangle+0xe8>
 80019da:	b019      	add	sp, #100	; 0x64
 80019dc:	e8bd 8ff0 	ldmia.w	sp!, {r4, r5, r6, r7, r8, r9, sl, fp, pc}
 80019e0:	42b7      	cmp	r7, r6
 80019e2:	dd14      	ble.n	8001a0e <LCD_DrawFilledTriangle+0x20e>
 80019e4:	4632      	mov	r2, r6
 80019e6:	464b      	mov	r3, r9
 80019e8:	462e      	mov	r6, r5
 80019ea:	46c1      	mov	r9, r8
 80019ec:	4615      	mov	r5, r2
 80019ee:	4698      	mov	r8, r3
 80019f0:	e71c      	b.n	800182c <LCD_DrawFilledTriangle+0x2c>
 80019f2:	4635      	mov	r5, r6
 80019f4:	4616      	mov	r6, r2
 80019f6:	42be      	cmp	r6, r7
 80019f8:	46c8      	mov	r8, r9
 80019fa:	4689      	mov	r9, r1
 80019fc:	f6bf af16 	bge.w	800182c <LCD_DrawFilledTriangle+0x2c>
 8001a00:	463a      	mov	r2, r7
 8001a02:	4653      	mov	r3, sl
 8001a04:	4637      	mov	r7, r6
 8001a06:	46ca      	mov	sl, r9
 8001a08:	4616      	mov	r6, r2
 8001a0a:	4699      	mov	r9, r3
 8001a0c:	e70e      	b.n	800182c <LCD_DrawFilledTriangle+0x2c>
 8001a0e:	463d      	mov	r5, r7
 8001a10:	46d0      	mov	r8, sl
 8001a12:	4617      	mov	r7, r2
 8001a14:	468a      	mov	sl, r1
 8001a16:	e706      	b.n	8001826 <LCD_DrawFilledTriangle+0x26>
 8001a18:	42ae      	cmp	r6, r5
 8001a1a:	4632      	mov	r2, r6
 8001a1c:	bfa8      	it	ge
 8001a1e:	462a      	movge	r2, r5
 8001a20:	b212      	sxth	r2, r2
 8001a22:	42a2      	cmp	r2, r4
 8001a24:	dcca      	bgt.n	80019bc <LCD_DrawFilledTriangle+0x1bc>
 8001a26:	42ae      	cmp	r6, r5
 8001a28:	4632      	mov	r2, r6
 8001a2a:	bfb8      	it	lt
 8001a2c:	462a      	movlt	r2, r5
 8001a2e:	b212      	sxth	r2, r2
 8001a30:	42a2      	cmp	r2, r4
 8001a32:	dbc3      	blt.n	80019bc <LCD_DrawFilledTriangle+0x1bc>
 8001a34:	9904      	ldr	r1, [sp, #16]
 8001a36:	aa18      	add	r2, sp, #96	; 0x60
 8001a38:	eb02 0141 	add.w	r1, r2, r1, lsl #1
 8001a3c:	eb02 0343 	add.w	r3, r2, r3, lsl #1
 8001a40:	f821 9c10 	strh.w	r9, [r1, #-16]
 8001a44:	f823 9c10 	strh.w	r9, [r3, #-16]
 8001a48:	3002      	adds	r0, #2
 8001a4a:	b2c0      	uxtb	r0, r0
 8001a4c:	f9bd 1050 	ldrsh.w	r1, [sp, #80]	; 0x50
 8001a50:	460b      	mov	r3, r1
 8001a52:	f10d 0c60 	add.w	ip, sp, #96	; 0x60
 8001a56:	1e82      	subs	r2, r0, #2
 8001a58:	eb0c 0040 	add.w	r0, ip, r0, lsl #1
 8001a5c:	f930 0c12 	ldrsh.w	r0, [r0, #-18]
 8001a60:	4283      	cmp	r3, r0
 8001a62:	bfb8      	it	lt
 8001a64:	4603      	movlt	r3, r0
 8001a66:	eb0c 0042 	add.w	r0, ip, r2, lsl #1
 8001a6a:	f930 0c10 	ldrsh.w	r0, [r0, #-16]
 8001a6e:	4281      	cmp	r1, r0
 8001a70:	bfa8      	it	ge
 8001a72:	4601      	movge	r1, r0
 8001a74:	f012 00ff 	ands.w	r0, r2, #255	; 0xff
 8001a78:	d1eb      	bne.n	8001a52 <LCD_DrawFilledTriangle+0x252>
 8001a7a:	9a25      	ldr	r2, [sp, #148]	; 0x94
 8001a7c:	9807      	ldr	r0, [sp, #28]
 8001a7e:	e9cd 4200 	strd	r4, r2, [sp]
 8001a82:	4622      	mov	r2, r4
 8001a84:	f7ff fdb4 	bl	80015f0 <LCD_DrawLine>
 8001a88:	e79a      	b.n	80019c0 <LCD_DrawFilledTriangle+0x1c0>
 8001a8a:	3b01      	subs	r3, #1
 8001a8c:	b21b      	sxth	r3, r3
 8001a8e:	9308      	str	r3, [sp, #32]
 8001a90:	e6f6      	b.n	8001880 <LCD_DrawFilledTriangle+0x80>
 8001a92:	42a7      	cmp	r7, r4
 8001a94:	f47f af41 	bne.w	800191a <LCD_DrawFilledTriangle+0x11a>
 8001a98:	9b0d      	ldr	r3, [sp, #52]	; 0x34
 8001a9a:	f8ad 3050 	strh.w	r3, [sp, #80]	; 0x50
 8001a9e:	42b7      	cmp	r7, r6
 8001aa0:	9b0f      	ldr	r3, [sp, #60]	; 0x3c
 8001aa2:	f8ad 3052 	strh.w	r3, [sp, #82]	; 0x52
 8001aa6:	f04f 0c04 	mov.w	ip, #4
 8001aaa:	d06d      	beq.n	8001b88 <LCD_DrawFilledTriangle+0x388>
 8001aac:	2305      	movs	r3, #5
 8001aae:	2002      	movs	r0, #2
 8001ab0:	9309      	str	r3, [sp, #36]	; 0x24
 8001ab2:	2303      	movs	r3, #3
 8001ab4:	9304      	str	r3, [sp, #16]
 8001ab6:	46e6      	mov	lr, ip
 8001ab8:	4603      	mov	r3, r0
 8001aba:	e73a      	b.n	8001932 <LCD_DrawFilledTriangle+0x132>
 8001abc:	42a6      	cmp	r6, r4
 8001abe:	f47f af7d 	bne.w	80019bc <LCD_DrawFilledTriangle+0x1bc>
 8001ac2:	aa18      	add	r2, sp, #96	; 0x60
 8001ac4:	9904      	ldr	r1, [sp, #16]
 8001ac6:	eb02 0343 	add.w	r3, r2, r3, lsl #1
 8001aca:	45c1      	cmp	r9, r8
 8001acc:	eb02 0141 	add.w	r1, r2, r1, lsl #1
 8001ad0:	464a      	mov	r2, r9
 8001ad2:	bfa8      	it	ge
 8001ad4:	4642      	movge	r2, r8
 8001ad6:	45c1      	cmp	r9, r8
 8001ad8:	f823 2c10 	strh.w	r2, [r3, #-16]
 8001adc:	464b      	mov	r3, r9
 8001ade:	bfb8      	it	lt
 8001ae0:	4643      	movlt	r3, r8
 8001ae2:	f821 3c10 	strh.w	r3, [r1, #-16]
 8001ae6:	e7af      	b.n	8001a48 <LCD_DrawFilledTriangle+0x248>
 8001ae8:	42a7      	cmp	r7, r4
 8001aea:	f47f af45 	bne.w	8001978 <LCD_DrawFilledTriangle+0x178>
 8001aee:	aa18      	add	r2, sp, #96	; 0x60
 8001af0:	eb02 0343 	add.w	r3, r2, r3, lsl #1
 8001af4:	9a13      	ldr	r2, [sp, #76]	; 0x4c
 8001af6:	f823 2c10 	strh.w	r2, [r3, #-16]
 8001afa:	9a04      	ldr	r2, [sp, #16]
 8001afc:	ab18      	add	r3, sp, #96	; 0x60
 8001afe:	eb03 0142 	add.w	r1, r3, r2, lsl #1
 8001b02:	9b10      	ldr	r3, [sp, #64]	; 0x40
 8001b04:	f821 3c10 	strh.w	r3, [r1, #-16]
 8001b08:	9b09      	ldr	r3, [sp, #36]	; 0x24
 8001b0a:	9304      	str	r3, [sp, #16]
 8001b0c:	4670      	mov	r0, lr
 8001b0e:	4663      	mov	r3, ip
 8001b10:	e732      	b.n	8001978 <LCD_DrawFilledTriangle+0x178>
 8001b12:	9a11      	ldr	r2, [sp, #68]	; 0x44
 8001b14:	42a2      	cmp	r2, r4
 8001b16:	f73f af2f 	bgt.w	8001978 <LCD_DrawFilledTriangle+0x178>
 8001b1a:	f9bd 2048 	ldrsh.w	r2, [sp, #72]	; 0x48
 8001b1e:	42a2      	cmp	r2, r4
 8001b20:	f6ff af2a 	blt.w	8001978 <LCD_DrawFilledTriangle+0x178>
 8001b24:	9904      	ldr	r1, [sp, #16]
 8001b26:	aa18      	add	r2, sp, #96	; 0x60
 8001b28:	eb02 0141 	add.w	r1, r2, r1, lsl #1
 8001b2c:	9a05      	ldr	r2, [sp, #20]
 8001b2e:	f821 2c10 	strh.w	r2, [r1, #-16]
 8001b32:	a918      	add	r1, sp, #96	; 0x60
 8001b34:	eb01 0343 	add.w	r3, r1, r3, lsl #1
 8001b38:	4670      	mov	r0, lr
 8001b3a:	f823 2c10 	strh.w	r2, [r3, #-16]
 8001b3e:	9b09      	ldr	r3, [sp, #36]	; 0x24
 8001b40:	9304      	str	r3, [sp, #16]
 8001b42:	4663      	mov	r3, ip
 8001b44:	e718      	b.n	8001978 <LCD_DrawFilledTriangle+0x178>
 8001b46:	42af      	cmp	r7, r5
 8001b48:	463b      	mov	r3, r7
 8001b4a:	bfa8      	it	ge
 8001b4c:	462b      	movge	r3, r5
 8001b4e:	b21b      	sxth	r3, r3
 8001b50:	42a3      	cmp	r3, r4
 8001b52:	f73f aee2 	bgt.w	800191a <LCD_DrawFilledTriangle+0x11a>
 8001b56:	42af      	cmp	r7, r5
 8001b58:	463b      	mov	r3, r7
 8001b5a:	bfb8      	it	lt
 8001b5c:	462b      	movlt	r3, r5
 8001b5e:	b21b      	sxth	r3, r3
 8001b60:	42a3      	cmp	r3, r4
 8001b62:	f6ff aeda 	blt.w	800191a <LCD_DrawFilledTriangle+0x11a>
 8001b66:	9a05      	ldr	r2, [sp, #20]
 8001b68:	2300      	movs	r3, #0
 8001b6a:	f362 030f 	bfi	r3, r2, #0, #16
 8001b6e:	f362 431f 	bfi	r3, r2, #16, #16
 8001b72:	9314      	str	r3, [sp, #80]	; 0x50
 8001b74:	2205      	movs	r2, #5
 8001b76:	f04f 0c04 	mov.w	ip, #4
 8001b7a:	2302      	movs	r3, #2
 8001b7c:	9209      	str	r2, [sp, #36]	; 0x24
 8001b7e:	2203      	movs	r2, #3
 8001b80:	46e6      	mov	lr, ip
 8001b82:	9204      	str	r2, [sp, #16]
 8001b84:	4618      	mov	r0, r3
 8001b86:	e6d1      	b.n	800192c <LCD_DrawFilledTriangle+0x12c>
 8001b88:	2305      	movs	r3, #5
 8001b8a:	9309      	str	r3, [sp, #36]	; 0x24
 8001b8c:	2303      	movs	r3, #3
 8001b8e:	9304      	str	r3, [sp, #16]
 8001b90:	46e6      	mov	lr, ip
 8001b92:	2302      	movs	r3, #2
 8001b94:	e7ab      	b.n	8001aee <LCD_DrawFilledTriangle+0x2ee>
 8001b96:	bf00      	nop

08001b98 <LCD_DrawCircle>:
 8001b98:	e92d 4ff0 	stmdb	sp!, {r4, r5, r6, r7, r8, r9, sl, fp, lr}
 8001b9c:	b085      	sub	sp, #20
 8001b9e:	b29c      	uxth	r4, r3
 8001ba0:	9300      	str	r3, [sp, #0]
 8001ba2:	ebc4 33c4 	rsb	r3, r4, r4, lsl #15
 8001ba6:	005b      	lsls	r3, r3, #1
 8001ba8:	b21b      	sxth	r3, r3
 8001baa:	8887      	ldrh	r7, [r0, #4]
 8001bac:	9301      	str	r3, [sp, #4]
 8001bae:	f1c4 0301 	rsb	r3, r4, #1
 8001bb2:	b21b      	sxth	r3, r3
 8001bb4:	428f      	cmp	r7, r1
 8001bb6:	4698      	mov	r8, r3
 8001bb8:	4606      	mov	r6, r0
 8001bba:	9b0e      	ldr	r3, [sp, #56]	; 0x38
 8001bbc:	4615      	mov	r5, r2
 8001bbe:	468a      	mov	sl, r1
 8001bc0:	fa1f fb82 	uxth.w	fp, r2
 8001bc4:	dd22      	ble.n	8001c0c <LCD_DrawCircle+0x74>
 8001bc6:	f8b0 c006 	ldrh.w	ip, [r0, #6]
 8001bca:	eb04 020b 	add.w	r2, r4, fp
 8001bce:	b212      	sxth	r2, r2
 8001bd0:	4594      	cmp	ip, r2
 8001bd2:	f340 8182 	ble.w	8001eda <LCD_DrawCircle+0x342>
 8001bd6:	2900      	cmp	r1, #0
 8001bd8:	db18      	blt.n	8001c0c <LCD_DrawCircle+0x74>
 8001bda:	2a00      	cmp	r2, #0
 8001bdc:	f2c0 818f 	blt.w	8001efe <LCD_DrawCircle+0x366>
 8001be0:	f7ff fa00 	bl	8000fe4 <LCD_DrawPixel.part.0>
 8001be4:	88b7      	ldrh	r7, [r6, #4]
 8001be6:	9b0e      	ldr	r3, [sp, #56]	; 0x38
 8001be8:	ebab 0204 	sub.w	r2, fp, r4
 8001bec:	4557      	cmp	r7, sl
 8001bee:	b212      	sxth	r2, r2
 8001bf0:	dd0c      	ble.n	8001c0c <LCD_DrawCircle+0x74>
 8001bf2:	f8b6 c006 	ldrh.w	ip, [r6, #6]
 8001bf6:	4594      	cmp	ip, r2
 8001bf8:	dd08      	ble.n	8001c0c <LCD_DrawCircle+0x74>
 8001bfa:	2a00      	cmp	r2, #0
 8001bfc:	db06      	blt.n	8001c0c <LCD_DrawCircle+0x74>
 8001bfe:	4651      	mov	r1, sl
 8001c00:	4630      	mov	r0, r6
 8001c02:	930e      	str	r3, [sp, #56]	; 0x38
 8001c04:	f7ff f9ee 	bl	8000fe4 <LCD_DrawPixel.part.0>
 8001c08:	88b7      	ldrh	r7, [r6, #4]
 8001c0a:	9b0e      	ldr	r3, [sp, #56]	; 0x38
 8001c0c:	fa1f fa8a 	uxth.w	sl, sl
 8001c10:	eb04 010a 	add.w	r1, r4, sl
 8001c14:	b209      	sxth	r1, r1
 8001c16:	42b9      	cmp	r1, r7
 8001c18:	da10      	bge.n	8001c3c <LCD_DrawCircle+0xa4>
 8001c1a:	f8b6 c006 	ldrh.w	ip, [r6, #6]
 8001c1e:	45ac      	cmp	ip, r5
 8001c20:	dd1f      	ble.n	8001c62 <LCD_DrawCircle+0xca>
 8001c22:	2900      	cmp	r1, #0
 8001c24:	f2c0 8164 	blt.w	8001ef0 <LCD_DrawCircle+0x358>
 8001c28:	2d00      	cmp	r5, #0
 8001c2a:	f2c0 8161 	blt.w	8001ef0 <LCD_DrawCircle+0x358>
 8001c2e:	462a      	mov	r2, r5
 8001c30:	4630      	mov	r0, r6
 8001c32:	930e      	str	r3, [sp, #56]	; 0x38
 8001c34:	f7ff f9d6 	bl	8000fe4 <LCD_DrawPixel.part.0>
 8001c38:	88b7      	ldrh	r7, [r6, #4]
 8001c3a:	9b0e      	ldr	r3, [sp, #56]	; 0x38
 8001c3c:	ebaa 0404 	sub.w	r4, sl, r4
 8001c40:	b221      	sxth	r1, r4
 8001c42:	42b9      	cmp	r1, r7
 8001c44:	da0d      	bge.n	8001c62 <LCD_DrawCircle+0xca>
 8001c46:	f8b6 c006 	ldrh.w	ip, [r6, #6]
 8001c4a:	45ac      	cmp	ip, r5
 8001c4c:	dd09      	ble.n	8001c62 <LCD_DrawCircle+0xca>
 8001c4e:	2900      	cmp	r1, #0
 8001c50:	db07      	blt.n	8001c62 <LCD_DrawCircle+0xca>
 8001c52:	2d00      	cmp	r5, #0
 8001c54:	db05      	blt.n	8001c62 <LCD_DrawCircle+0xca>
 8001c56:	462a      	mov	r2, r5
 8001c58:	4630      	mov	r0, r6
 8001c5a:	930e      	str	r3, [sp, #56]	; 0x38
 8001c5c:	f7ff f9c2 	bl	8000fe4 <LCD_DrawPixel.part.0>
 8001c60:	9b0e      	ldr	r3, [sp, #56]	; 0x38
 8001c62:	9a00      	ldr	r2, [sp, #0]
 8001c64:	2a00      	cmp	r2, #0
 8001c66:	f340 810b 	ble.w	8001e80 <LCD_DrawCircle+0x2e8>
 8001c6a:	2700      	movs	r7, #0
 8001c6c:	4630      	mov	r0, r6
 8001c6e:	e0da      	b.n	8001e26 <LCD_DrawCircle+0x28e>
 8001c70:	9a01      	ldr	r2, [sp, #4]
 8001c72:	9900      	ldr	r1, [sp, #0]
 8001c74:	3202      	adds	r2, #2
 8001c76:	3901      	subs	r1, #1
 8001c78:	fa18 f882 	uxtah	r8, r8, r2
 8001c7c:	b28c      	uxth	r4, r1
 8001c7e:	b212      	sxth	r2, r2
 8001c80:	b209      	sxth	r1, r1
 8001c82:	9100      	str	r1, [sp, #0]
 8001c84:	9201      	str	r2, [sp, #4]
 8001c86:	fa1f f888 	uxth.w	r8, r8
 8001c8a:	3701      	adds	r7, #1
 8001c8c:	b2bd      	uxth	r5, r7
 8001c8e:	f8b0 c004 	ldrh.w	ip, [r0, #4]
 8001c92:	eb0a 0905 	add.w	r9, sl, r5
 8001c96:	eb08 0845 	add.w	r8, r8, r5, lsl #1
 8001c9a:	fa0f f989 	sxth.w	r9, r9
 8001c9e:	f108 0801 	add.w	r8, r8, #1
 8001ca2:	eb0b 0204 	add.w	r2, fp, r4
 8001ca6:	45cc      	cmp	ip, r9
 8001ca8:	b23f      	sxth	r7, r7
 8001caa:	fa0f f888 	sxth.w	r8, r8
 8001cae:	b212      	sxth	r2, r2
 8001cb0:	f340 80e9 	ble.w	8001e86 <LCD_DrawCircle+0x2ee>
 8001cb4:	88c1      	ldrh	r1, [r0, #6]
 8001cb6:	4291      	cmp	r1, r2
 8001cb8:	f340 80c5 	ble.w	8001e46 <LCD_DrawCircle+0x2ae>
 8001cbc:	f1b9 0f00 	cmp.w	r9, #0
 8001cc0:	f2c0 80c1 	blt.w	8001e46 <LCD_DrawCircle+0x2ae>
 8001cc4:	2a00      	cmp	r2, #0
 8001cc6:	f2c0 80be 	blt.w	8001e46 <LCD_DrawCircle+0x2ae>
 8001cca:	4649      	mov	r1, r9
 8001ccc:	930e      	str	r3, [sp, #56]	; 0x38
 8001cce:	9002      	str	r0, [sp, #8]
 8001cd0:	9203      	str	r2, [sp, #12]
 8001cd2:	f7ff f987 	bl	8000fe4 <LCD_DrawPixel.part.0>
 8001cd6:	9802      	ldr	r0, [sp, #8]
 8001cd8:	9b0e      	ldr	r3, [sp, #56]	; 0x38
 8001cda:	f8b0 c004 	ldrh.w	ip, [r0, #4]
 8001cde:	ebaa 0605 	sub.w	r6, sl, r5
 8001ce2:	b236      	sxth	r6, r6
 8001ce4:	4566      	cmp	r6, ip
 8001ce6:	f280 80f0 	bge.w	8001eca <LCD_DrawCircle+0x332>
 8001cea:	88c1      	ldrh	r1, [r0, #6]
 8001cec:	9a03      	ldr	r2, [sp, #12]
 8001cee:	4291      	cmp	r1, r2
 8001cf0:	f340 80a2 	ble.w	8001e38 <LCD_DrawCircle+0x2a0>
 8001cf4:	2e00      	cmp	r6, #0
 8001cf6:	f2c0 809f 	blt.w	8001e38 <LCD_DrawCircle+0x2a0>
 8001cfa:	2a00      	cmp	r2, #0
 8001cfc:	f2c0 809c 	blt.w	8001e38 <LCD_DrawCircle+0x2a0>
 8001d00:	4631      	mov	r1, r6
 8001d02:	930e      	str	r3, [sp, #56]	; 0x38
 8001d04:	9002      	str	r0, [sp, #8]
 8001d06:	f7ff f96d 	bl	8000fe4 <LCD_DrawPixel.part.0>
 8001d0a:	9802      	ldr	r0, [sp, #8]
 8001d0c:	9b0e      	ldr	r3, [sp, #56]	; 0x38
 8001d0e:	f8b0 c004 	ldrh.w	ip, [r0, #4]
 8001d12:	ebab 0204 	sub.w	r2, fp, r4
 8001d16:	45cc      	cmp	ip, r9
 8001d18:	b212      	sxth	r2, r2
 8001d1a:	dd14      	ble.n	8001d46 <LCD_DrawCircle+0x1ae>
 8001d1c:	88c1      	ldrh	r1, [r0, #6]
 8001d1e:	428a      	cmp	r2, r1
 8001d20:	da23      	bge.n	8001d6a <LCD_DrawCircle+0x1d2>
 8001d22:	f1b9 0f00 	cmp.w	r9, #0
 8001d26:	f2c0 80b9 	blt.w	8001e9c <LCD_DrawCircle+0x304>
 8001d2a:	2a00      	cmp	r2, #0
 8001d2c:	f2c0 80b6 	blt.w	8001e9c <LCD_DrawCircle+0x304>
 8001d30:	4649      	mov	r1, r9
 8001d32:	e9cd 0202 	strd	r0, r2, [sp, #8]
 8001d36:	930e      	str	r3, [sp, #56]	; 0x38
 8001d38:	f7ff f954 	bl	8000fe4 <LCD_DrawPixel.part.0>
 8001d3c:	9802      	ldr	r0, [sp, #8]
 8001d3e:	9b0e      	ldr	r3, [sp, #56]	; 0x38
 8001d40:	f8b0 c004 	ldrh.w	ip, [r0, #4]
 8001d44:	9a03      	ldr	r2, [sp, #12]
 8001d46:	4566      	cmp	r6, ip
 8001d48:	da0f      	bge.n	8001d6a <LCD_DrawCircle+0x1d2>
 8001d4a:	88c1      	ldrh	r1, [r0, #6]
 8001d4c:	428a      	cmp	r2, r1
 8001d4e:	da0c      	bge.n	8001d6a <LCD_DrawCircle+0x1d2>
 8001d50:	2e00      	cmp	r6, #0
 8001d52:	db0a      	blt.n	8001d6a <LCD_DrawCircle+0x1d2>
 8001d54:	2a00      	cmp	r2, #0
 8001d56:	db08      	blt.n	8001d6a <LCD_DrawCircle+0x1d2>
 8001d58:	4631      	mov	r1, r6
 8001d5a:	930e      	str	r3, [sp, #56]	; 0x38
 8001d5c:	9002      	str	r0, [sp, #8]
 8001d5e:	f7ff f941 	bl	8000fe4 <LCD_DrawPixel.part.0>
 8001d62:	9802      	ldr	r0, [sp, #8]
 8001d64:	9b0e      	ldr	r3, [sp, #56]	; 0x38
 8001d66:	f8b0 c004 	ldrh.w	ip, [r0, #4]
 8001d6a:	eb0a 0904 	add.w	r9, sl, r4
 8001d6e:	fa0f f989 	sxth.w	r9, r9
 8001d72:	eb0b 0605 	add.w	r6, fp, r5
 8001d76:	45e1      	cmp	r9, ip
 8001d78:	b236      	sxth	r6, r6
 8001d7a:	da79      	bge.n	8001e70 <LCD_DrawCircle+0x2d8>
 8001d7c:	88c1      	ldrh	r1, [r0, #6]
 8001d7e:	42b1      	cmp	r1, r6
 8001d80:	dd6b      	ble.n	8001e5a <LCD_DrawCircle+0x2c2>
 8001d82:	f1b9 0f00 	cmp.w	r9, #0
 8001d86:	f2c0 808d 	blt.w	8001ea4 <LCD_DrawCircle+0x30c>
 8001d8a:	2e00      	cmp	r6, #0
 8001d8c:	f2c0 8096 	blt.w	8001ebc <LCD_DrawCircle+0x324>
 8001d90:	4632      	mov	r2, r6
 8001d92:	4649      	mov	r1, r9
 8001d94:	930e      	str	r3, [sp, #56]	; 0x38
 8001d96:	9002      	str	r0, [sp, #8]
 8001d98:	f7ff f924 	bl	8000fe4 <LCD_DrawPixel.part.0>
 8001d9c:	9802      	ldr	r0, [sp, #8]
 8001d9e:	9b0e      	ldr	r3, [sp, #56]	; 0x38
 8001da0:	f8b0 c004 	ldrh.w	ip, [r0, #4]
 8001da4:	ebaa 0404 	sub.w	r4, sl, r4
 8001da8:	b224      	sxth	r4, r4
 8001daa:	4564      	cmp	r4, ip
 8001dac:	da7f      	bge.n	8001eae <LCD_DrawCircle+0x316>
 8001dae:	88c1      	ldrh	r1, [r0, #6]
 8001db0:	42b1      	cmp	r1, r6
 8001db2:	dd57      	ble.n	8001e64 <LCD_DrawCircle+0x2cc>
 8001db4:	2c00      	cmp	r4, #0
 8001db6:	db55      	blt.n	8001e64 <LCD_DrawCircle+0x2cc>
 8001db8:	2e00      	cmp	r6, #0
 8001dba:	db53      	blt.n	8001e64 <LCD_DrawCircle+0x2cc>
 8001dbc:	4632      	mov	r2, r6
 8001dbe:	4621      	mov	r1, r4
 8001dc0:	930e      	str	r3, [sp, #56]	; 0x38
 8001dc2:	9002      	str	r0, [sp, #8]
 8001dc4:	f7ff f90e 	bl	8000fe4 <LCD_DrawPixel.part.0>
 8001dc8:	9802      	ldr	r0, [sp, #8]
 8001dca:	9b0e      	ldr	r3, [sp, #56]	; 0x38
 8001dcc:	f8b0 c004 	ldrh.w	ip, [r0, #4]
 8001dd0:	ebab 0505 	sub.w	r5, fp, r5
 8001dd4:	45cc      	cmp	ip, r9
 8001dd6:	b22d      	sxth	r5, r5
 8001dd8:	dd11      	ble.n	8001dfe <LCD_DrawCircle+0x266>
 8001dda:	88c1      	ldrh	r1, [r0, #6]
 8001ddc:	428d      	cmp	r5, r1
 8001dde:	da1f      	bge.n	8001e20 <LCD_DrawCircle+0x288>
 8001de0:	f1b9 0f00 	cmp.w	r9, #0
 8001de4:	db57      	blt.n	8001e96 <LCD_DrawCircle+0x2fe>
 8001de6:	2d00      	cmp	r5, #0
 8001de8:	db55      	blt.n	8001e96 <LCD_DrawCircle+0x2fe>
 8001dea:	4649      	mov	r1, r9
 8001dec:	462a      	mov	r2, r5
 8001dee:	930e      	str	r3, [sp, #56]	; 0x38
 8001df0:	9002      	str	r0, [sp, #8]
 8001df2:	f7ff f8f7 	bl	8000fe4 <LCD_DrawPixel.part.0>
 8001df6:	9802      	ldr	r0, [sp, #8]
 8001df8:	9b0e      	ldr	r3, [sp, #56]	; 0x38
 8001dfa:	f8b0 c004 	ldrh.w	ip, [r0, #4]
 8001dfe:	4564      	cmp	r4, ip
 8001e00:	da0e      	bge.n	8001e20 <LCD_DrawCircle+0x288>
 8001e02:	88c1      	ldrh	r1, [r0, #6]
 8001e04:	428d      	cmp	r5, r1
 8001e06:	da0b      	bge.n	8001e20 <LCD_DrawCircle+0x288>
 8001e08:	2c00      	cmp	r4, #0
 8001e0a:	db09      	blt.n	8001e20 <LCD_DrawCircle+0x288>
 8001e0c:	2d00      	cmp	r5, #0
 8001e0e:	db07      	blt.n	8001e20 <LCD_DrawCircle+0x288>
 8001e10:	462a      	mov	r2, r5
 8001e12:	4621      	mov	r1, r4
 8001e14:	930e      	str	r3, [sp, #56]	; 0x38
 8001e16:	9002      	str	r0, [sp, #8]
 8001e18:	f7ff f8e4 	bl	8000fe4 <LCD_DrawPixel.part.0>
 8001e1c:	9b0e      	ldr	r3, [sp, #56]	; 0x38
 8001e1e:	9802      	ldr	r0, [sp, #8]
 8001e20:	9a00      	ldr	r2, [sp, #0]
 8001e22:	42ba      	cmp	r2, r7
 8001e24:	dd2c      	ble.n	8001e80 <LCD_DrawCircle+0x2e8>
 8001e26:	f1b8 0f00 	cmp.w	r8, #0
 8001e2a:	f6bf af21 	bge.w	8001c70 <LCD_DrawCircle+0xd8>
 8001e2e:	f8bd 4000 	ldrh.w	r4, [sp]
 8001e32:	fa1f f888 	uxth.w	r8, r8
 8001e36:	e728      	b.n	8001c8a <LCD_DrawCircle+0xf2>
 8001e38:	ebab 0204 	sub.w	r2, fp, r4
 8001e3c:	45cc      	cmp	ip, r9
 8001e3e:	b212      	sxth	r2, r2
 8001e40:	f73f af6d 	bgt.w	8001d1e <LCD_DrawCircle+0x186>
 8001e44:	e782      	b.n	8001d4c <LCD_DrawCircle+0x1b4>
 8001e46:	ebaa 0605 	sub.w	r6, sl, r5
 8001e4a:	b236      	sxth	r6, r6
 8001e4c:	45b4      	cmp	ip, r6
 8001e4e:	f73f af4e 	bgt.w	8001cee <LCD_DrawCircle+0x156>
 8001e52:	ebab 0204 	sub.w	r2, fp, r4
 8001e56:	b212      	sxth	r2, r2
 8001e58:	e761      	b.n	8001d1e <LCD_DrawCircle+0x186>
 8001e5a:	ebaa 0404 	sub.w	r4, sl, r4
 8001e5e:	b224      	sxth	r4, r4
 8001e60:	4564      	cmp	r4, ip
 8001e62:	da24      	bge.n	8001eae <LCD_DrawCircle+0x316>
 8001e64:	ebab 0505 	sub.w	r5, fp, r5
 8001e68:	45e1      	cmp	r9, ip
 8001e6a:	b22d      	sxth	r5, r5
 8001e6c:	dbb6      	blt.n	8001ddc <LCD_DrawCircle+0x244>
 8001e6e:	e7c9      	b.n	8001e04 <LCD_DrawCircle+0x26c>
 8001e70:	ebaa 0404 	sub.w	r4, sl, r4
 8001e74:	b224      	sxth	r4, r4
 8001e76:	4564      	cmp	r4, ip
 8001e78:	db99      	blt.n	8001dae <LCD_DrawCircle+0x216>
 8001e7a:	9a00      	ldr	r2, [sp, #0]
 8001e7c:	42ba      	cmp	r2, r7
 8001e7e:	dcd2      	bgt.n	8001e26 <LCD_DrawCircle+0x28e>
 8001e80:	b005      	add	sp, #20
 8001e82:	e8bd 8ff0 	ldmia.w	sp!, {r4, r5, r6, r7, r8, r9, sl, fp, pc}
 8001e86:	ebaa 0605 	sub.w	r6, sl, r5
 8001e8a:	b236      	sxth	r6, r6
 8001e8c:	45b4      	cmp	ip, r6
 8001e8e:	f77f af6c 	ble.w	8001d6a <LCD_DrawCircle+0x1d2>
 8001e92:	88c1      	ldrh	r1, [r0, #6]
 8001e94:	e72b      	b.n	8001cee <LCD_DrawCircle+0x156>
 8001e96:	4564      	cmp	r4, ip
 8001e98:	dbb6      	blt.n	8001e08 <LCD_DrawCircle+0x270>
 8001e9a:	e7c1      	b.n	8001e20 <LCD_DrawCircle+0x288>
 8001e9c:	4566      	cmp	r6, ip
 8001e9e:	f6ff af57 	blt.w	8001d50 <LCD_DrawCircle+0x1b8>
 8001ea2:	e762      	b.n	8001d6a <LCD_DrawCircle+0x1d2>
 8001ea4:	ebaa 0404 	sub.w	r4, sl, r4
 8001ea8:	b224      	sxth	r4, r4
 8001eaa:	4564      	cmp	r4, ip
 8001eac:	db82      	blt.n	8001db4 <LCD_DrawCircle+0x21c>
 8001eae:	45e1      	cmp	r9, ip
 8001eb0:	dab6      	bge.n	8001e20 <LCD_DrawCircle+0x288>
 8001eb2:	88c1      	ldrh	r1, [r0, #6]
 8001eb4:	ebab 0505 	sub.w	r5, fp, r5
 8001eb8:	b22d      	sxth	r5, r5
 8001eba:	e78f      	b.n	8001ddc <LCD_DrawCircle+0x244>
 8001ebc:	ebaa 0404 	sub.w	r4, sl, r4
 8001ec0:	b224      	sxth	r4, r4
 8001ec2:	4564      	cmp	r4, ip
 8001ec4:	f6ff af74 	blt.w	8001db0 <LCD_DrawCircle+0x218>
 8001ec8:	e7f4      	b.n	8001eb4 <LCD_DrawCircle+0x31c>
 8001eca:	45e1      	cmp	r9, ip
 8001ecc:	f6bf af4d 	bge.w	8001d6a <LCD_DrawCircle+0x1d2>
 8001ed0:	ebab 0204 	sub.w	r2, fp, r4
 8001ed4:	88c1      	ldrh	r1, [r0, #6]
 8001ed6:	b212      	sxth	r2, r2
 8001ed8:	e721      	b.n	8001d1e <LCD_DrawCircle+0x186>
 8001eda:	ebab 0204 	sub.w	r2, fp, r4
 8001ede:	b212      	sxth	r2, r2
 8001ee0:	4562      	cmp	r2, ip
 8001ee2:	f6bf ae93 	bge.w	8001c0c <LCD_DrawCircle+0x74>
 8001ee6:	f1ba 0f00 	cmp.w	sl, #0
 8001eea:	f6bf ae86 	bge.w	8001bfa <LCD_DrawCircle+0x62>
 8001eee:	e68d      	b.n	8001c0c <LCD_DrawCircle+0x74>
 8001ef0:	ebaa 0404 	sub.w	r4, sl, r4
 8001ef4:	b221      	sxth	r1, r4
 8001ef6:	42b9      	cmp	r1, r7
 8001ef8:	f6ff aea9 	blt.w	8001c4e <LCD_DrawCircle+0xb6>
 8001efc:	e6b1      	b.n	8001c62 <LCD_DrawCircle+0xca>
 8001efe:	ebab 0204 	sub.w	r2, fp, r4
 8001f02:	b212      	sxth	r2, r2
 8001f04:	4594      	cmp	ip, r2
 8001f06:	f73f ae78 	bgt.w	8001bfa <LCD_DrawCircle+0x62>
 8001f0a:	e67f      	b.n	8001c0c <LCD_DrawCircle+0x74>

08001f0c <LCD_DrawFilledCircle>:
 8001f0c:	e92d 4ff0 	stmdb	sp!, {r4, r5, r6, r7, r8, r9, sl, fp, lr}
 8001f10:	b089      	sub	sp, #36	; 0x24
 8001f12:	b29c      	uxth	r4, r3
 8001f14:	461e      	mov	r6, r3
 8001f16:	9303      	str	r3, [sp, #12]
 8001f18:	ebc4 33c4 	rsb	r3, r4, r4, lsl #15
 8001f1c:	005b      	lsls	r3, r3, #1
 8001f1e:	fa1f f981 	uxth.w	r9, r1
 8001f22:	b21b      	sxth	r3, r3
 8001f24:	f8dd b048 	ldr.w	fp, [sp, #72]	; 0x48
 8001f28:	9307      	str	r3, [sp, #28]
 8001f2a:	eba9 0104 	sub.w	r1, r9, r4
 8001f2e:	eb04 0309 	add.w	r3, r4, r9
 8001f32:	9200      	str	r2, [sp, #0]
 8001f34:	f8cd b004 	str.w	fp, [sp, #4]
 8001f38:	b21b      	sxth	r3, r3
 8001f3a:	b209      	sxth	r1, r1
 8001f3c:	4682      	mov	sl, r0
 8001f3e:	4615      	mov	r5, r2
 8001f40:	f7ff fb56 	bl	80015f0 <LCD_DrawLine>
 8001f44:	2e00      	cmp	r6, #0
 8001f46:	dd5c      	ble.n	8002002 <LCD_DrawFilledCircle+0xf6>
 8001f48:	f1c4 0401 	rsb	r4, r4, #1
 8001f4c:	fa1f f885 	uxth.w	r8, r5
 8001f50:	4650      	mov	r0, sl
 8001f52:	b224      	sxth	r4, r4
 8001f54:	46da      	mov	sl, fp
 8001f56:	2700      	movs	r7, #0
 8001f58:	46c3      	mov	fp, r8
 8001f5a:	e04c      	b.n	8001ff6 <LCD_DrawFilledCircle+0xea>
 8001f5c:	9b07      	ldr	r3, [sp, #28]
 8001f5e:	9a03      	ldr	r2, [sp, #12]
 8001f60:	3302      	adds	r3, #2
 8001f62:	3a01      	subs	r2, #1
 8001f64:	fa14 f483 	uxtah	r4, r4, r3
 8001f68:	b296      	uxth	r6, r2
 8001f6a:	b21b      	sxth	r3, r3
 8001f6c:	b212      	sxth	r2, r2
 8001f6e:	9203      	str	r2, [sp, #12]
 8001f70:	b2a4      	uxth	r4, r4
 8001f72:	9307      	str	r3, [sp, #28]
 8001f74:	3701      	adds	r7, #1
 8001f76:	b2bd      	uxth	r5, r7
 8001f78:	eb0b 0206 	add.w	r2, fp, r6
 8001f7c:	eb09 0805 	add.w	r8, r9, r5
 8001f80:	b212      	sxth	r2, r2
 8001f82:	fa0f f888 	sxth.w	r8, r8
 8001f86:	eba9 0105 	sub.w	r1, r9, r5
 8001f8a:	b209      	sxth	r1, r1
 8001f8c:	e9cd 2a00 	strd	r2, sl, [sp]
 8001f90:	4643      	mov	r3, r8
 8001f92:	e9cd 0104 	strd	r0, r1, [sp, #16]
 8001f96:	f7ff fb2b 	bl	80015f0 <LCD_DrawLine>
 8001f9a:	9905      	ldr	r1, [sp, #20]
 8001f9c:	9804      	ldr	r0, [sp, #16]
 8001f9e:	ebab 0206 	sub.w	r2, fp, r6
 8001fa2:	b212      	sxth	r2, r2
 8001fa4:	460b      	mov	r3, r1
 8001fa6:	e9cd 2a00 	strd	r2, sl, [sp]
 8001faa:	4641      	mov	r1, r8
 8001fac:	f7ff fb20 	bl	80015f0 <LCD_DrawLine>
 8001fb0:	eb05 020b 	add.w	r2, r5, fp
 8001fb4:	b212      	sxth	r2, r2
 8001fb6:	eb09 0106 	add.w	r1, r9, r6
 8001fba:	eba9 0306 	sub.w	r3, r9, r6
 8001fbe:	b209      	sxth	r1, r1
 8001fc0:	b21b      	sxth	r3, r3
 8001fc2:	e9cd 2a00 	strd	r2, sl, [sp]
 8001fc6:	9804      	ldr	r0, [sp, #16]
 8001fc8:	9306      	str	r3, [sp, #24]
 8001fca:	9105      	str	r1, [sp, #20]
 8001fcc:	f7ff fb10 	bl	80015f0 <LCD_DrawLine>
 8001fd0:	ebab 0205 	sub.w	r2, fp, r5
 8001fd4:	b212      	sxth	r2, r2
 8001fd6:	e9dd 1305 	ldrd	r1, r3, [sp, #20]
 8001fda:	9804      	ldr	r0, [sp, #16]
 8001fdc:	e9cd 2a00 	strd	r2, sl, [sp]
 8001fe0:	f7ff fb06 	bl	80015f0 <LCD_DrawLine>
 8001fe4:	9b03      	ldr	r3, [sp, #12]
 8001fe6:	9804      	ldr	r0, [sp, #16]
 8001fe8:	eb04 0445 	add.w	r4, r4, r5, lsl #1
 8001fec:	b23f      	sxth	r7, r7
 8001fee:	3401      	adds	r4, #1
 8001ff0:	42bb      	cmp	r3, r7
 8001ff2:	b224      	sxth	r4, r4
 8001ff4:	dd05      	ble.n	8002002 <LCD_DrawFilledCircle+0xf6>
 8001ff6:	2c00      	cmp	r4, #0
 8001ff8:	dab0      	bge.n	8001f5c <LCD_DrawFilledCircle+0x50>
 8001ffa:	f8bd 600c 	ldrh.w	r6, [sp, #12]
 8001ffe:	b2a4      	uxth	r4, r4
 8002000:	e7b8      	b.n	8001f74 <LCD_DrawFilledCircle+0x68>
 8002002:	b009      	add	sp, #36	; 0x24
 8002004:	e8bd 8ff0 	ldmia.w	sp!, {r4, r5, r6, r7, r8, r9, sl, fp, pc}

08002008 <LCD_WriteChar>:
 8002008:	e92d 4ff0 	stmdb	sp!, {r4, r5, r6, r7, r8, r9, sl, fp, lr}
 800200c:	b085      	sub	sp, #20
 800200e:	4694      	mov	ip, r2
 8002010:	9101      	str	r1, [sp, #4]
 8002012:	4aaf      	ldr	r2, [pc, #700]	; (80022d0 <LCD_WriteChar+0x2c8>)
 8002014:	990f      	ldr	r1, [sp, #60]	; 0x3c
 8002016:	f8dd 8038 	ldr.w	r8, [sp, #56]	; 0x38
 800201a:	ea02 2211 	and.w	r2, r2, r1, lsr #8
 800201e:	f3c1 0ac4 	ubfx	sl, r1, #3, #5
 8002022:	ea4a 0a02 	orr.w	sl, sl, r2
 8002026:	4606      	mov	r6, r0
 8002028:	094a      	lsrs	r2, r1, #5
 800202a:	f890 0048 	ldrb.w	r0, [r0, #72]	; 0x48
 800202e:	f89d 1044 	ldrb.w	r1, [sp, #68]	; 0x44
 8002032:	f402 62fc 	and.w	r2, r2, #2016	; 0x7e0
 8002036:	ea4a 0a02 	orr.w	sl, sl, r2
 800203a:	2801      	cmp	r0, #1
 800203c:	9a10      	ldr	r2, [sp, #64]	; 0x40
 800203e:	fa1f fa8a 	uxth.w	sl, sl
 8002042:	d103      	bne.n	800204c <LCD_WriteChar+0x44>
 8002044:	fa9a fa9a 	rev16.w	sl, sl
 8002048:	fa1f fa8a 	uxth.w	sl, sl
 800204c:	4ca0      	ldr	r4, [pc, #640]	; (80022d0 <LCD_WriteChar+0x2c8>)
 800204e:	f3c2 09c4 	ubfx	r9, r2, #3, #5
 8002052:	ea04 2412 	and.w	r4, r4, r2, lsr #8
 8002056:	0952      	lsrs	r2, r2, #5
 8002058:	ea49 0904 	orr.w	r9, r9, r4
 800205c:	f402 62fc 	and.w	r2, r2, #2016	; 0x7e0
 8002060:	ea49 0202 	orr.w	r2, r9, r2
 8002064:	2801      	cmp	r0, #1
 8002066:	fa1f f982 	uxth.w	r9, r2
 800206a:	d103      	bne.n	8002074 <LCD_WriteChar+0x6c>
 800206c:	fa99 f999 	rev16.w	r9, r9
 8002070:	fa1f f989 	uxth.w	r9, r9
 8002074:	f898 b008 	ldrb.w	fp, [r8, #8]
 8002078:	459b      	cmp	fp, r3
 800207a:	d803      	bhi.n	8002084 <LCD_WriteChar+0x7c>
 800207c:	f898 2009 	ldrb.w	r2, [r8, #9]
 8002080:	429a      	cmp	r2, r3
 8002082:	d271      	bcs.n	8002168 <LCD_WriteChar+0x160>
 8002084:	f04f 0b00 	mov.w	fp, #0
 8002088:	f898 0000 	ldrb.w	r0, [r8]
 800208c:	1e47      	subs	r7, r0, #1
 800208e:	10ff      	asrs	r7, r7, #3
 8002090:	3701      	adds	r7, #1
 8002092:	2f04      	cmp	r7, #4
 8002094:	dc65      	bgt.n	8002162 <LCD_WriteChar+0x15a>
 8002096:	f8d8 2004 	ldr.w	r2, [r8, #4]
 800209a:	f898 3001 	ldrb.w	r3, [r8, #1]
 800209e:	fb07 fb0b 	mul.w	fp, r7, fp
 80020a2:	fb03 2b0b 	mla	fp, r3, fp, r2
 80020a6:	00fa      	lsls	r2, r7, #3
 80020a8:	3a01      	subs	r2, #1
 80020aa:	2501      	movs	r5, #1
 80020ac:	fa05 f202 	lsl.w	r2, r5, r2
 80020b0:	9202      	str	r2, [sp, #8]
 80020b2:	2900      	cmp	r1, #0
 80020b4:	d05d      	beq.n	8002172 <LCD_WriteChar+0x16a>
 80020b6:	2b00      	cmp	r3, #0
 80020b8:	d053      	beq.n	8002162 <LCD_WriteChar+0x15a>
 80020ba:	f04f 0a00 	mov.w	sl, #0
 80020be:	2f01      	cmp	r7, #1
 80020c0:	4601      	mov	r1, r0
 80020c2:	4615      	mov	r5, r2
 80020c4:	4630      	mov	r0, r6
 80020c6:	46e1      	mov	r9, ip
 80020c8:	4656      	mov	r6, sl
 80020ca:	f8cd 8038 	str.w	r8, [sp, #56]	; 0x38
 80020ce:	d043      	beq.n	8002158 <LCD_WriteChar+0x150>
 80020d0:	2f02      	cmp	r7, #2
 80020d2:	f000 80cd 	beq.w	8002270 <LCD_WriteChar+0x268>
 80020d6:	2f03      	cmp	r7, #3
 80020d8:	f000 80cd 	beq.w	8002276 <LCD_WriteChar+0x26e>
 80020dc:	2f04      	cmp	r7, #4
 80020de:	bf08      	it	eq
 80020e0:	f8db a000 	ldreq.w	sl, [fp]
 80020e4:	44bb      	add	fp, r7
 80020e6:	2900      	cmp	r1, #0
 80020e8:	d03b      	beq.n	8002162 <LCD_WriteChar+0x15a>
 80020ea:	fa0f f289 	sxth.w	r2, r9
 80020ee:	2a00      	cmp	r2, #0
 80020f0:	db29      	blt.n	8002146 <LCD_WriteChar+0x13e>
 80020f2:	9c01      	ldr	r4, [sp, #4]
 80020f4:	f04f 0800 	mov.w	r8, #0
 80020f8:	e003      	b.n	8002102 <LCD_WriteChar+0xfa>
 80020fa:	3401      	adds	r4, #1
 80020fc:	4541      	cmp	r1, r8
 80020fe:	b2a4      	uxth	r4, r4
 8002100:	dd1f      	ble.n	8002142 <LCD_WriteChar+0x13a>
 8002102:	fa0a f308 	lsl.w	r3, sl, r8
 8002106:	422b      	tst	r3, r5
 8002108:	f108 0801 	add.w	r8, r8, #1
 800210c:	d0f5      	beq.n	80020fa <LCD_WriteChar+0xf2>
 800210e:	8883      	ldrh	r3, [r0, #4]
 8002110:	fa0f fc84 	sxth.w	ip, r4
 8002114:	4563      	cmp	r3, ip
 8002116:	ddf0      	ble.n	80020fa <LCD_WriteChar+0xf2>
 8002118:	f8b0 e006 	ldrh.w	lr, [r0, #6]
 800211c:	9b0f      	ldr	r3, [sp, #60]	; 0x3c
 800211e:	4596      	cmp	lr, r2
 8002120:	ddeb      	ble.n	80020fa <LCD_WriteChar+0xf2>
 8002122:	f1bc 0f00 	cmp.w	ip, #0
 8002126:	dbe8      	blt.n	80020fa <LCD_WriteChar+0xf2>
 8002128:	4661      	mov	r1, ip
 800212a:	e9cd 0202 	strd	r0, r2, [sp, #8]
 800212e:	f7fe ff59 	bl	8000fe4 <LCD_DrawPixel.part.0>
 8002132:	9b0e      	ldr	r3, [sp, #56]	; 0x38
 8002134:	7819      	ldrb	r1, [r3, #0]
 8002136:	3401      	adds	r4, #1
 8002138:	4541      	cmp	r1, r8
 800213a:	e9dd 0202 	ldrd	r0, r2, [sp, #8]
 800213e:	b2a4      	uxth	r4, r4
 8002140:	dcdf      	bgt.n	8002102 <LCD_WriteChar+0xfa>
 8002142:	9b0e      	ldr	r3, [sp, #56]	; 0x38
 8002144:	785b      	ldrb	r3, [r3, #1]
 8002146:	3601      	adds	r6, #1
 8002148:	429e      	cmp	r6, r3
 800214a:	da0a      	bge.n	8002162 <LCD_WriteChar+0x15a>
 800214c:	f109 0901 	add.w	r9, r9, #1
 8002150:	2f01      	cmp	r7, #1
 8002152:	fa1f f989 	uxth.w	r9, r9
 8002156:	d1bb      	bne.n	80020d0 <LCD_WriteChar+0xc8>
 8002158:	f89b a000 	ldrb.w	sl, [fp]
 800215c:	44bb      	add	fp, r7
 800215e:	2900      	cmp	r1, #0
 8002160:	d1c3      	bne.n	80020ea <LCD_WriteChar+0xe2>
 8002162:	b005      	add	sp, #20
 8002164:	e8bd 8ff0 	ldmia.w	sp!, {r4, r5, r6, r7, r8, r9, sl, fp, pc}
 8002168:	eba3 0b0b 	sub.w	fp, r3, fp
 800216c:	fa5f fb8b 	uxtb.w	fp, fp
 8002170:	e78a      	b.n	8002088 <LCD_WriteChar+0x80>
 8002172:	89b1      	ldrh	r1, [r6, #12]
 8002174:	9d01      	ldr	r5, [sp, #4]
 8002176:	8974      	ldrh	r4, [r6, #10]
 8002178:	f10c 32ff 	add.w	r2, ip, #4294967295
 800217c:	440a      	add	r2, r1
 800217e:	4413      	add	r3, r2
 8002180:	1e6a      	subs	r2, r5, #1
 8002182:	4422      	add	r2, r4
 8002184:	4402      	add	r2, r0
 8002186:	4628      	mov	r0, r5
 8002188:	4461      	add	r1, ip
 800218a:	4420      	add	r0, r4
 800218c:	b292      	uxth	r2, r2
 800218e:	b29b      	uxth	r3, r3
 8002190:	b289      	uxth	r1, r1
 8002192:	69b5      	ldr	r5, [r6, #24]
 8002194:	6a74      	ldr	r4, [r6, #36]	; 0x24
 8002196:	b280      	uxth	r0, r0
 8002198:	47a8      	blx	r5
 800219a:	4601      	mov	r1, r0
 800219c:	4630      	mov	r0, r6
 800219e:	f7fe fe95 	bl	8000ecc <LCD_String_Interpretator>
 80021a2:	6c32      	ldr	r2, [r6, #64]	; 0x40
 80021a4:	b11a      	cbz	r2, 80021ae <LCD_WriteChar+0x1a6>
 80021a6:	f8b6 3044 	ldrh.w	r3, [r6, #68]	; 0x44
 80021aa:	041b      	lsls	r3, r3, #16
 80021ac:	6193      	str	r3, [r2, #24]
 80021ae:	6bb3      	ldr	r3, [r6, #56]	; 0x38
 80021b0:	8fb2      	ldrh	r2, [r6, #60]	; 0x3c
 80021b2:	619a      	str	r2, [r3, #24]
 80021b4:	6823      	ldr	r3, [r4, #0]
 80021b6:	f023 0340 	bic.w	r3, r3, #64	; 0x40
 80021ba:	6023      	str	r3, [r4, #0]
 80021bc:	6823      	ldr	r3, [r4, #0]
 80021be:	f423 432c 	bic.w	r3, r3, #44032	; 0xac00
 80021c2:	6023      	str	r3, [r4, #0]
 80021c4:	f896 3048 	ldrb.w	r3, [r6, #72]	; 0x48
 80021c8:	2b02      	cmp	r3, #2
 80021ca:	d061      	beq.n	8002290 <LCD_WriteChar+0x288>
 80021cc:	6823      	ldr	r3, [r4, #0]
 80021ce:	f043 0340 	orr.w	r3, r3, #64	; 0x40
 80021d2:	6023      	str	r3, [r4, #0]
 80021d4:	f898 3001 	ldrb.w	r3, [r8, #1]
 80021d8:	b393      	cbz	r3, 8002240 <LCD_WriteChar+0x238>
 80021da:	2f01      	cmp	r7, #1
 80021dc:	f898 3000 	ldrb.w	r3, [r8]
 80021e0:	9d02      	ldr	r5, [sp, #8]
 80021e2:	f04f 0c00 	mov.w	ip, #0
 80021e6:	d027      	beq.n	8002238 <LCD_WriteChar+0x230>
 80021e8:	2f02      	cmp	r7, #2
 80021ea:	d062      	beq.n	80022b2 <LCD_WriteChar+0x2aa>
 80021ec:	2f03      	cmp	r7, #3
 80021ee:	d063      	beq.n	80022b8 <LCD_WriteChar+0x2b0>
 80021f0:	f8db 0000 	ldr.w	r0, [fp]
 80021f4:	44bb      	add	fp, r7
 80021f6:	b31b      	cbz	r3, 8002240 <LCD_WriteChar+0x238>
 80021f8:	2200      	movs	r2, #0
 80021fa:	fa00 f102 	lsl.w	r1, r0, r2
 80021fe:	68a3      	ldr	r3, [r4, #8]
 8002200:	4229      	tst	r1, r5
 8002202:	bf14      	ite	ne
 8002204:	4651      	movne	r1, sl
 8002206:	4649      	moveq	r1, r9
 8002208:	079b      	lsls	r3, r3, #30
 800220a:	d403      	bmi.n	8002214 <LCD_WriteChar+0x20c>
 800220c:	bf00      	nop
 800220e:	68a3      	ldr	r3, [r4, #8]
 8002210:	079b      	lsls	r3, r3, #30
 8002212:	d5fb      	bpl.n	800220c <LCD_WriteChar+0x204>
 8002214:	f896 3048 	ldrb.w	r3, [r6, #72]	; 0x48
 8002218:	2b02      	cmp	r3, #2
 800221a:	d13e      	bne.n	800229a <LCD_WriteChar+0x292>
 800221c:	60e1      	str	r1, [r4, #12]
 800221e:	f898 3000 	ldrb.w	r3, [r8]
 8002222:	3201      	adds	r2, #1
 8002224:	4293      	cmp	r3, r2
 8002226:	dce8      	bgt.n	80021fa <LCD_WriteChar+0x1f2>
 8002228:	f898 2001 	ldrb.w	r2, [r8, #1]
 800222c:	f10c 0c01 	add.w	ip, ip, #1
 8002230:	4562      	cmp	r2, ip
 8002232:	dd05      	ble.n	8002240 <LCD_WriteChar+0x238>
 8002234:	2f01      	cmp	r7, #1
 8002236:	d1d7      	bne.n	80021e8 <LCD_WriteChar+0x1e0>
 8002238:	f89b 0000 	ldrb.w	r0, [fp]
 800223c:	e7da      	b.n	80021f4 <LCD_WriteChar+0x1ec>
 800223e:	bf00      	nop
 8002240:	68a3      	ldr	r3, [r4, #8]
 8002242:	079a      	lsls	r2, r3, #30
 8002244:	d5fb      	bpl.n	800223e <LCD_WriteChar+0x236>
 8002246:	68a3      	ldr	r3, [r4, #8]
 8002248:	061b      	lsls	r3, r3, #24
 800224a:	d503      	bpl.n	8002254 <LCD_WriteChar+0x24c>
 800224c:	bf00      	nop
 800224e:	68a3      	ldr	r3, [r4, #8]
 8002250:	061b      	lsls	r3, r3, #24
 8002252:	d4fb      	bmi.n	800224c <LCD_WriteChar+0x244>
 8002254:	6823      	ldr	r3, [r4, #0]
 8002256:	6c32      	ldr	r2, [r6, #64]	; 0x40
 8002258:	f023 0340 	bic.w	r3, r3, #64	; 0x40
 800225c:	6023      	str	r3, [r4, #0]
 800225e:	2a00      	cmp	r2, #0
 8002260:	f43f af7f 	beq.w	8002162 <LCD_WriteChar+0x15a>
 8002264:	f8b6 3044 	ldrh.w	r3, [r6, #68]	; 0x44
 8002268:	6193      	str	r3, [r2, #24]
 800226a:	b005      	add	sp, #20
 800226c:	e8bd 8ff0 	ldmia.w	sp!, {r4, r5, r6, r7, r8, r9, sl, fp, pc}
 8002270:	f8bb a000 	ldrh.w	sl, [fp]
 8002274:	e736      	b.n	80020e4 <LCD_WriteChar+0xdc>
 8002276:	f89b a002 	ldrb.w	sl, [fp, #2]
 800227a:	f89b 2001 	ldrb.w	r2, [fp, #1]
 800227e:	ea4f 4a0a 	mov.w	sl, sl, lsl #16
 8002282:	ea4a 2a02 	orr.w	sl, sl, r2, lsl #8
 8002286:	f89b 2000 	ldrb.w	r2, [fp]
 800228a:	ea4a 0a02 	orr.w	sl, sl, r2
 800228e:	e729      	b.n	80020e4 <LCD_WriteChar+0xdc>
 8002290:	6823      	ldr	r3, [r4, #0]
 8002292:	f443 6300 	orr.w	r3, r3, #2048	; 0x800
 8002296:	6023      	str	r3, [r4, #0]
 8002298:	e798      	b.n	80021cc <LCD_WriteChar+0x1c4>
 800229a:	b2cb      	uxtb	r3, r1
 800229c:	60e3      	str	r3, [r4, #12]
 800229e:	68a3      	ldr	r3, [r4, #8]
 80022a0:	079b      	lsls	r3, r3, #30
 80022a2:	f3c1 210f 	ubfx	r1, r1, #8, #16
 80022a6:	d4b9      	bmi.n	800221c <LCD_WriteChar+0x214>
 80022a8:	bf00      	nop
 80022aa:	68a3      	ldr	r3, [r4, #8]
 80022ac:	079b      	lsls	r3, r3, #30
 80022ae:	d5fb      	bpl.n	80022a8 <LCD_WriteChar+0x2a0>
 80022b0:	e7b4      	b.n	800221c <LCD_WriteChar+0x214>
 80022b2:	f8bb 0000 	ldrh.w	r0, [fp]
 80022b6:	e79d      	b.n	80021f4 <LCD_WriteChar+0x1ec>
 80022b8:	f89b 0002 	ldrb.w	r0, [fp, #2]
 80022bc:	f89b 2001 	ldrb.w	r2, [fp, #1]
 80022c0:	0400      	lsls	r0, r0, #16
 80022c2:	ea40 2002 	orr.w	r0, r0, r2, lsl #8
 80022c6:	f89b 2000 	ldrb.w	r2, [fp]
 80022ca:	4310      	orrs	r0, r2
 80022cc:	e792      	b.n	80021f4 <LCD_WriteChar+0x1ec>
 80022ce:	bf00      	nop
 80022d0:	fffff800 	.word	0xfffff800

080022d4 <LCD_WriteString>:
 80022d4:	e92d 4ff0 	stmdb	sp!, {r4, r5, r6, r7, r8, r9, sl, fp, lr}
 80022d8:	461f      	mov	r7, r3
 80022da:	b085      	sub	sp, #20
 80022dc:	781b      	ldrb	r3, [r3, #0]
 80022de:	9e0e      	ldr	r6, [sp, #56]	; 0x38
 80022e0:	f89d a044 	ldrb.w	sl, [sp, #68]	; 0x44
 80022e4:	e9dd 890f 	ldrd	r8, r9, [sp, #60]	; 0x3c
 80022e8:	4605      	mov	r5, r0
 80022ea:	460c      	mov	r4, r1
 80022ec:	4693      	mov	fp, r2
 80022ee:	b303      	cbz	r3, 8002332 <LCD_WriteString+0x5e>
 80022f0:	f896 c000 	ldrb.w	ip, [r6]
 80022f4:	88aa      	ldrh	r2, [r5, #4]
 80022f6:	44a4      	add	ip, r4
 80022f8:	4594      	cmp	ip, r2
 80022fa:	4628      	mov	r0, r5
 80022fc:	dd09      	ble.n	8002312 <LCD_WriteString+0x3e>
 80022fe:	7871      	ldrb	r1, [r6, #1]
 8002300:	88ec      	ldrh	r4, [r5, #6]
 8002302:	448b      	add	fp, r1
 8002304:	fa1f fb8b 	uxth.w	fp, fp
 8002308:	4459      	add	r1, fp
 800230a:	42a1      	cmp	r1, r4
 800230c:	f04f 0400 	mov.w	r4, #0
 8002310:	dc0f      	bgt.n	8002332 <LCD_WriteString+0x5e>
 8002312:	4621      	mov	r1, r4
 8002314:	e9cd 9a02 	strd	r9, sl, [sp, #8]
 8002318:	e9cd 6800 	strd	r6, r8, [sp]
 800231c:	465a      	mov	r2, fp
 800231e:	f7ff fe73 	bl	8002008 <LCD_WriteChar>
 8002322:	f896 c000 	ldrb.w	ip, [r6]
 8002326:	f817 3f01 	ldrb.w	r3, [r7, #1]!
 800232a:	4464      	add	r4, ip
 800232c:	b2a4      	uxth	r4, r4
 800232e:	2b00      	cmp	r3, #0
 8002330:	d1e0      	bne.n	80022f4 <LCD_WriteString+0x20>
 8002332:	81ec      	strh	r4, [r5, #14]
 8002334:	f8a5 b010 	strh.w	fp, [r5, #16]
 8002338:	b005      	add	sp, #20
 800233a:	e8bd 8ff0 	ldmia.w	sp!, {r4, r5, r6, r7, r8, r9, sl, fp, pc}
 800233e:	bf00      	nop

08002340 <ILI9341_Init>:
 8002340:	b158      	cbz	r0, 800235a <ILI9341_Init+0x1a>
 8002342:	2802      	cmp	r0, #2
 8002344:	d00e      	beq.n	8002364 <ILI9341_Init+0x24>
 8002346:	2801      	cmp	r0, #1
 8002348:	d011      	beq.n	800236e <ILI9341_Init+0x2e>
 800234a:	2803      	cmp	r0, #3
 800234c:	480a      	ldr	r0, [pc, #40]	; (8002378 <ILI9341_Init+0x38>)
 800234e:	bf14      	ite	ne
 8002350:	2300      	movne	r3, #0
 8002352:	23f8      	moveq	r3, #248	; 0xf8
 8002354:	f880 3041 	strb.w	r3, [r0, #65]	; 0x41
 8002358:	4770      	bx	lr
 800235a:	4807      	ldr	r0, [pc, #28]	; (8002378 <ILI9341_Init+0x38>)
 800235c:	2348      	movs	r3, #72	; 0x48
 800235e:	f880 3041 	strb.w	r3, [r0, #65]	; 0x41
 8002362:	4770      	bx	lr
 8002364:	4804      	ldr	r0, [pc, #16]	; (8002378 <ILI9341_Init+0x38>)
 8002366:	239c      	movs	r3, #156	; 0x9c
 8002368:	f880 3041 	strb.w	r3, [r0, #65]	; 0x41
 800236c:	4770      	bx	lr
 800236e:	4802      	ldr	r0, [pc, #8]	; (8002378 <ILI9341_Init+0x38>)
 8002370:	232c      	movs	r3, #44	; 0x2c
 8002372:	f880 3041 	strb.w	r3, [r0, #65]	; 0x41
 8002376:	4770      	bx	lr
 8002378:	20000010 	.word	0x20000010

0800237c <ILI9341_SetWindow>:
 800237c:	b410      	push	{r4}
 800237e:	4c07      	ldr	r4, [pc, #28]	; (800239c <ILI9341_SetWindow+0x20>)
 8002380:	ba49      	rev16	r1, r1
 8002382:	8161      	strh	r1, [r4, #10]
 8002384:	7120      	strb	r0, [r4, #4]
 8002386:	ba5b      	rev16	r3, r3
 8002388:	0a00      	lsrs	r0, r0, #8
 800238a:	0a11      	lsrs	r1, r2, #8
 800238c:	70e0      	strb	r0, [r4, #3]
 800238e:	7161      	strb	r1, [r4, #5]
 8002390:	4620      	mov	r0, r4
 8002392:	71a2      	strb	r2, [r4, #6]
 8002394:	81a3      	strh	r3, [r4, #12]
 8002396:	f85d 4b04 	ldr.w	r4, [sp], #4
 800239a:	4770      	bx	lr
 800239c:	200000a4 	.word	0x200000a4

080023a0 <ILI9341_SleepIn>:
 80023a0:	4800      	ldr	r0, [pc, #0]	; (80023a4 <ILI9341_SleepIn+0x4>)
 80023a2:	4770      	bx	lr
 80023a4:	200000b8 	.word	0x200000b8

080023a8 <ILI9341_SleepOut>:
 80023a8:	4800      	ldr	r0, [pc, #0]	; (80023ac <ILI9341_SleepOut+0x4>)
 80023aa:	4770      	bx	lr
 80023ac:	200000c0 	.word	0x200000c0

080023b0 <LL_EXTI_Init>:
 80023b0:	b410      	push	{r4}
 80023b2:	4603      	mov	r3, r0
 80023b4:	7900      	ldrb	r0, [r0, #4]
 80023b6:	b1a8      	cbz	r0, 80023e4 <LL_EXTI_Init+0x34>
 80023b8:	6818      	ldr	r0, [r3, #0]
 80023ba:	b180      	cbz	r0, 80023de <LL_EXTI_Init+0x2e>
 80023bc:	795a      	ldrb	r2, [r3, #5]
 80023be:	2a01      	cmp	r2, #1
 80023c0:	d02f      	beq.n	8002422 <LL_EXTI_Init+0x72>
 80023c2:	2a02      	cmp	r2, #2
 80023c4:	d01b      	beq.n	80023fe <LL_EXTI_Init+0x4e>
 80023c6:	b31a      	cbz	r2, 8002410 <LL_EXTI_Init+0x60>
 80023c8:	2201      	movs	r2, #1
 80023ca:	799b      	ldrb	r3, [r3, #6]
 80023cc:	2b00      	cmp	r3, #0
 80023ce:	d03a      	beq.n	8002446 <LL_EXTI_Init+0x96>
 80023d0:	2b02      	cmp	r3, #2
 80023d2:	d030      	beq.n	8002436 <LL_EXTI_Init+0x86>
 80023d4:	2b03      	cmp	r3, #3
 80023d6:	d044      	beq.n	8002462 <LL_EXTI_Init+0xb2>
 80023d8:	2b01      	cmp	r3, #1
 80023da:	d038      	beq.n	800244e <LL_EXTI_Init+0x9e>
 80023dc:	2001      	movs	r0, #1
 80023de:	f85d 4b04 	ldr.w	r4, [sp], #4
 80023e2:	4770      	bx	lr
 80023e4:	4a21      	ldr	r2, [pc, #132]	; (800246c <LL_EXTI_Init+0xbc>)
 80023e6:	681c      	ldr	r4, [r3, #0]
 80023e8:	6811      	ldr	r1, [r2, #0]
 80023ea:	ea21 0104 	bic.w	r1, r1, r4
 80023ee:	6011      	str	r1, [r2, #0]
 80023f0:	6853      	ldr	r3, [r2, #4]
 80023f2:	ea23 0304 	bic.w	r3, r3, r4
 80023f6:	6053      	str	r3, [r2, #4]
 80023f8:	f85d 4b04 	ldr.w	r4, [sp], #4
 80023fc:	4770      	bx	lr
 80023fe:	491b      	ldr	r1, [pc, #108]	; (800246c <LL_EXTI_Init+0xbc>)
 8002400:	680c      	ldr	r4, [r1, #0]
 8002402:	4304      	orrs	r4, r0
 8002404:	600c      	str	r4, [r1, #0]
 8002406:	684c      	ldr	r4, [r1, #4]
 8002408:	4304      	orrs	r4, r0
 800240a:	2200      	movs	r2, #0
 800240c:	604c      	str	r4, [r1, #4]
 800240e:	e7dc      	b.n	80023ca <LL_EXTI_Init+0x1a>
 8002410:	4916      	ldr	r1, [pc, #88]	; (800246c <LL_EXTI_Init+0xbc>)
 8002412:	684c      	ldr	r4, [r1, #4]
 8002414:	ea24 0400 	bic.w	r4, r4, r0
 8002418:	604c      	str	r4, [r1, #4]
 800241a:	680c      	ldr	r4, [r1, #0]
 800241c:	4304      	orrs	r4, r0
 800241e:	600c      	str	r4, [r1, #0]
 8002420:	e7d3      	b.n	80023ca <LL_EXTI_Init+0x1a>
 8002422:	4912      	ldr	r1, [pc, #72]	; (800246c <LL_EXTI_Init+0xbc>)
 8002424:	680c      	ldr	r4, [r1, #0]
 8002426:	ea24 0400 	bic.w	r4, r4, r0
 800242a:	600c      	str	r4, [r1, #0]
 800242c:	684c      	ldr	r4, [r1, #4]
 800242e:	4304      	orrs	r4, r0
 8002430:	2200      	movs	r2, #0
 8002432:	604c      	str	r4, [r1, #4]
 8002434:	e7c9      	b.n	80023ca <LL_EXTI_Init+0x1a>
 8002436:	4b0d      	ldr	r3, [pc, #52]	; (800246c <LL_EXTI_Init+0xbc>)
 8002438:	6899      	ldr	r1, [r3, #8]
 800243a:	ea21 0100 	bic.w	r1, r1, r0
 800243e:	6099      	str	r1, [r3, #8]
 8002440:	68d9      	ldr	r1, [r3, #12]
 8002442:	4308      	orrs	r0, r1
 8002444:	60d8      	str	r0, [r3, #12]
 8002446:	4610      	mov	r0, r2
 8002448:	f85d 4b04 	ldr.w	r4, [sp], #4
 800244c:	4770      	bx	lr
 800244e:	4b07      	ldr	r3, [pc, #28]	; (800246c <LL_EXTI_Init+0xbc>)
 8002450:	68d9      	ldr	r1, [r3, #12]
 8002452:	ea21 0100 	bic.w	r1, r1, r0
 8002456:	60d9      	str	r1, [r3, #12]
 8002458:	6899      	ldr	r1, [r3, #8]
 800245a:	4308      	orrs	r0, r1
 800245c:	6098      	str	r0, [r3, #8]
 800245e:	4610      	mov	r0, r2
 8002460:	e7bd      	b.n	80023de <LL_EXTI_Init+0x2e>
 8002462:	4b02      	ldr	r3, [pc, #8]	; (800246c <LL_EXTI_Init+0xbc>)
 8002464:	6899      	ldr	r1, [r3, #8]
 8002466:	4301      	orrs	r1, r0
 8002468:	e7e9      	b.n	800243e <LL_EXTI_Init+0x8e>
 800246a:	bf00      	nop
 800246c:	40013c00 	.word	0x40013c00

08002470 <LL_GPIO_Init>:
 8002470:	e92d 47f0 	stmdb	sp!, {r4, r5, r6, r7, r8, r9, sl, lr}
 8002474:	680c      	ldr	r4, [r1, #0]
 8002476:	fa94 f2a4 	rbit	r2, r4
 800247a:	fab2 f282 	clz	r2, r2
 800247e:	fa34 f302 	lsrs.w	r3, r4, r2
 8002482:	d07d      	beq.n	8002580 <LL_GPIO_Init+0x110>
 8002484:	f04f 0e01 	mov.w	lr, #1
 8002488:	f04f 0c03 	mov.w	ip, #3
 800248c:	f04f 0a0f 	mov.w	sl, #15
 8002490:	e017      	b.n	80024c2 <LL_GPIO_Init+0x52>
 8002492:	f8d0 8000 	ldr.w	r8, [r0]
 8002496:	fa93 f7a3 	rbit	r7, r3
 800249a:	fab7 f787 	clz	r7, r7
 800249e:	fa93 f3a3 	rbit	r3, r3
 80024a2:	fab3 f383 	clz	r3, r3
 80024a6:	007f      	lsls	r7, r7, #1
 80024a8:	fa0c f707 	lsl.w	r7, ip, r7
 80024ac:	005b      	lsls	r3, r3, #1
 80024ae:	ea28 0707 	bic.w	r7, r8, r7
 80024b2:	fa05 f303 	lsl.w	r3, r5, r3
 80024b6:	433b      	orrs	r3, r7
 80024b8:	6003      	str	r3, [r0, #0]
 80024ba:	3201      	adds	r2, #1
 80024bc:	fa34 f302 	lsrs.w	r3, r4, r2
 80024c0:	d05e      	beq.n	8002580 <LL_GPIO_Init+0x110>
 80024c2:	fa0e f302 	lsl.w	r3, lr, r2
 80024c6:	4023      	ands	r3, r4
 80024c8:	d0f7      	beq.n	80024ba <LL_GPIO_Init+0x4a>
 80024ca:	684d      	ldr	r5, [r1, #4]
 80024cc:	1e6f      	subs	r7, r5, #1
 80024ce:	2f01      	cmp	r7, #1
 80024d0:	d81f      	bhi.n	8002512 <LL_GPIO_Init+0xa2>
 80024d2:	f8d0 8008 	ldr.w	r8, [r0, #8]
 80024d6:	fa93 f7a3 	rbit	r7, r3
 80024da:	fab7 f787 	clz	r7, r7
 80024de:	fa93 f9a3 	rbit	r9, r3
 80024e2:	688e      	ldr	r6, [r1, #8]
 80024e4:	fab9 f989 	clz	r9, r9
 80024e8:	007f      	lsls	r7, r7, #1
 80024ea:	fa0c f707 	lsl.w	r7, ip, r7
 80024ee:	ea4f 0949 	mov.w	r9, r9, lsl #1
 80024f2:	ea28 0707 	bic.w	r7, r8, r7
 80024f6:	fa06 f909 	lsl.w	r9, r6, r9
 80024fa:	ea47 0709 	orr.w	r7, r7, r9
 80024fe:	6087      	str	r7, [r0, #8]
 8002500:	6847      	ldr	r7, [r0, #4]
 8002502:	68ce      	ldr	r6, [r1, #12]
 8002504:	ea27 0703 	bic.w	r7, r7, r3
 8002508:	fb06 f803 	mul.w	r8, r6, r3
 800250c:	ea47 0708 	orr.w	r7, r7, r8
 8002510:	6047      	str	r7, [r0, #4]
 8002512:	f8d0 800c 	ldr.w	r8, [r0, #12]
 8002516:	fa93 f7a3 	rbit	r7, r3
 800251a:	fab7 f787 	clz	r7, r7
 800251e:	fa93 f9a3 	rbit	r9, r3
 8002522:	690e      	ldr	r6, [r1, #16]
 8002524:	fab9 f989 	clz	r9, r9
 8002528:	007f      	lsls	r7, r7, #1
 800252a:	fa0c f707 	lsl.w	r7, ip, r7
 800252e:	ea4f 0949 	mov.w	r9, r9, lsl #1
 8002532:	ea28 0707 	bic.w	r7, r8, r7
 8002536:	fa06 f909 	lsl.w	r9, r6, r9
 800253a:	ea47 0709 	orr.w	r7, r7, r9
 800253e:	2d02      	cmp	r5, #2
 8002540:	60c7      	str	r7, [r0, #12]
 8002542:	d1a6      	bne.n	8002492 <LL_GPIO_Init+0x22>
 8002544:	fa93 f7a3 	rbit	r7, r3
 8002548:	fab7 f787 	clz	r7, r7
 800254c:	2f07      	cmp	r7, #7
 800254e:	dc1a      	bgt.n	8002586 <LL_GPIO_Init+0x116>
 8002550:	f8d0 8020 	ldr.w	r8, [r0, #32]
 8002554:	fa93 f7a3 	rbit	r7, r3
 8002558:	fab7 f787 	clz	r7, r7
 800255c:	fa93 f9a3 	rbit	r9, r3
 8002560:	694e      	ldr	r6, [r1, #20]
 8002562:	fab9 f989 	clz	r9, r9
 8002566:	00bf      	lsls	r7, r7, #2
 8002568:	fa0a f707 	lsl.w	r7, sl, r7
 800256c:	ea4f 0989 	mov.w	r9, r9, lsl #2
 8002570:	ea28 0707 	bic.w	r7, r8, r7
 8002574:	fa06 f909 	lsl.w	r9, r6, r9
 8002578:	ea47 0709 	orr.w	r7, r7, r9
 800257c:	6207      	str	r7, [r0, #32]
 800257e:	e788      	b.n	8002492 <LL_GPIO_Init+0x22>
 8002580:	2000      	movs	r0, #0
 8002582:	e8bd 87f0 	ldmia.w	sp!, {r4, r5, r6, r7, r8, r9, sl, pc}
 8002586:	f8d0 9024 	ldr.w	r9, [r0, #36]	; 0x24
 800258a:	0a1f      	lsrs	r7, r3, #8
 800258c:	fa97 f8a7 	rbit	r8, r7
 8002590:	fab8 f888 	clz	r8, r8
 8002594:	fa97 f7a7 	rbit	r7, r7
 8002598:	694e      	ldr	r6, [r1, #20]
 800259a:	fab7 f787 	clz	r7, r7
 800259e:	ea4f 0888 	mov.w	r8, r8, lsl #2
 80025a2:	fa0a f808 	lsl.w	r8, sl, r8
 80025a6:	00bf      	lsls	r7, r7, #2
 80025a8:	ea29 0808 	bic.w	r8, r9, r8
 80025ac:	fa06 f707 	lsl.w	r7, r6, r7
 80025b0:	ea48 0707 	orr.w	r7, r8, r7
 80025b4:	6247      	str	r7, [r0, #36]	; 0x24
 80025b6:	e76c      	b.n	8002492 <LL_GPIO_Init+0x22>

080025b8 <LL_SPI_Init>:
 80025b8:	4602      	mov	r2, r0
 80025ba:	6800      	ldr	r0, [r0, #0]
 80025bc:	f010 0040 	ands.w	r0, r0, #64	; 0x40
 80025c0:	d128      	bne.n	8002614 <LL_SPI_Init+0x5c>
 80025c2:	6813      	ldr	r3, [r2, #0]
 80025c4:	b430      	push	{r4, r5}
 80025c6:	f423 4c7f 	bic.w	ip, r3, #65280	; 0xff00
 80025ca:	e9d1 3500 	ldrd	r3, r5, [r1]
 80025ce:	432b      	orrs	r3, r5
 80025d0:	688d      	ldr	r5, [r1, #8]
 80025d2:	694c      	ldr	r4, [r1, #20]
 80025d4:	432b      	orrs	r3, r5
 80025d6:	68cd      	ldr	r5, [r1, #12]
 80025d8:	432b      	orrs	r3, r5
 80025da:	690d      	ldr	r5, [r1, #16]
 80025dc:	432b      	orrs	r3, r5
 80025de:	698d      	ldr	r5, [r1, #24]
 80025e0:	4323      	orrs	r3, r4
 80025e2:	432b      	orrs	r3, r5
 80025e4:	69cd      	ldr	r5, [r1, #28]
 80025e6:	432b      	orrs	r3, r5
 80025e8:	6a0d      	ldr	r5, [r1, #32]
 80025ea:	f02c 0cbf 	bic.w	ip, ip, #191	; 0xbf
 80025ee:	432b      	orrs	r3, r5
 80025f0:	ea43 030c 	orr.w	r3, r3, ip
 80025f4:	6013      	str	r3, [r2, #0]
 80025f6:	6853      	ldr	r3, [r2, #4]
 80025f8:	f023 0304 	bic.w	r3, r3, #4
 80025fc:	ea43 4314 	orr.w	r3, r3, r4, lsr #16
 8002600:	f5b5 5f00 	cmp.w	r5, #8192	; 0x2000
 8002604:	6053      	str	r3, [r2, #4]
 8002606:	d00b      	beq.n	8002620 <LL_SPI_Init+0x68>
 8002608:	69d3      	ldr	r3, [r2, #28]
 800260a:	f423 6300 	bic.w	r3, r3, #2048	; 0x800
 800260e:	bc30      	pop	{r4, r5}
 8002610:	61d3      	str	r3, [r2, #28]
 8002612:	4770      	bx	lr
 8002614:	69d3      	ldr	r3, [r2, #28]
 8002616:	f423 6300 	bic.w	r3, r3, #2048	; 0x800
 800261a:	2001      	movs	r0, #1
 800261c:	61d3      	str	r3, [r2, #28]
 800261e:	4770      	bx	lr
 8002620:	8c8b      	ldrh	r3, [r1, #36]	; 0x24
 8002622:	6113      	str	r3, [r2, #16]
 8002624:	e7f0      	b.n	8002608 <LL_SPI_Init+0x50>
 8002626:	bf00      	nop

08002628 <LL_TIM_Init>:
 8002628:	4a24      	ldr	r2, [pc, #144]	; (80026bc <LL_TIM_Init+0x94>)
 800262a:	6803      	ldr	r3, [r0, #0]
 800262c:	4290      	cmp	r0, r2
 800262e:	b430      	push	{r4, r5}
 8002630:	d034      	beq.n	800269c <LL_TIM_Init+0x74>
 8002632:	f1b0 4f80 	cmp.w	r0, #1073741824	; 0x40000000
 8002636:	d01d      	beq.n	8002674 <LL_TIM_Init+0x4c>
 8002638:	f5a2 427c 	sub.w	r2, r2, #64512	; 0xfc00
 800263c:	4290      	cmp	r0, r2
 800263e:	d019      	beq.n	8002674 <LL_TIM_Init+0x4c>
 8002640:	f502 6280 	add.w	r2, r2, #1024	; 0x400
 8002644:	4290      	cmp	r0, r2
 8002646:	d015      	beq.n	8002674 <LL_TIM_Init+0x4c>
 8002648:	f502 6280 	add.w	r2, r2, #1024	; 0x400
 800264c:	4290      	cmp	r0, r2
 800264e:	d011      	beq.n	8002674 <LL_TIM_Init+0x4c>
 8002650:	f502 329a 	add.w	r2, r2, #78848	; 0x13400
 8002654:	4290      	cmp	r0, r2
 8002656:	d011      	beq.n	800267c <LL_TIM_Init+0x54>
 8002658:	f502 6280 	add.w	r2, r2, #1024	; 0x400
 800265c:	4290      	cmp	r0, r2
 800265e:	d00d      	beq.n	800267c <LL_TIM_Init+0x54>
 8002660:	f502 6280 	add.w	r2, r2, #1024	; 0x400
 8002664:	4290      	cmp	r0, r2
 8002666:	d009      	beq.n	800267c <LL_TIM_Init+0x54>
 8002668:	688c      	ldr	r4, [r1, #8]
 800266a:	880a      	ldrh	r2, [r1, #0]
 800266c:	6003      	str	r3, [r0, #0]
 800266e:	62c4      	str	r4, [r0, #44]	; 0x2c
 8002670:	6282      	str	r2, [r0, #40]	; 0x28
 8002672:	e00c      	b.n	800268e <LL_TIM_Init+0x66>
 8002674:	684a      	ldr	r2, [r1, #4]
 8002676:	f023 0370 	bic.w	r3, r3, #112	; 0x70
 800267a:	4313      	orrs	r3, r2
 800267c:	68cd      	ldr	r5, [r1, #12]
 800267e:	688c      	ldr	r4, [r1, #8]
 8002680:	880a      	ldrh	r2, [r1, #0]
 8002682:	f423 7340 	bic.w	r3, r3, #768	; 0x300
 8002686:	432b      	orrs	r3, r5
 8002688:	6003      	str	r3, [r0, #0]
 800268a:	62c4      	str	r4, [r0, #44]	; 0x2c
 800268c:	6282      	str	r2, [r0, #40]	; 0x28
 800268e:	6943      	ldr	r3, [r0, #20]
 8002690:	f043 0301 	orr.w	r3, r3, #1
 8002694:	6143      	str	r3, [r0, #20]
 8002696:	bc30      	pop	{r4, r5}
 8002698:	2000      	movs	r0, #0
 800269a:	4770      	bx	lr
 800269c:	684c      	ldr	r4, [r1, #4]
 800269e:	68ca      	ldr	r2, [r1, #12]
 80026a0:	f023 0370 	bic.w	r3, r3, #112	; 0x70
 80026a4:	4323      	orrs	r3, r4
 80026a6:	f423 7340 	bic.w	r3, r3, #768	; 0x300
 80026aa:	4313      	orrs	r3, r2
 80026ac:	6003      	str	r3, [r0, #0]
 80026ae:	688a      	ldr	r2, [r1, #8]
 80026b0:	880b      	ldrh	r3, [r1, #0]
 80026b2:	62c2      	str	r2, [r0, #44]	; 0x2c
 80026b4:	6283      	str	r3, [r0, #40]	; 0x28
 80026b6:	690b      	ldr	r3, [r1, #16]
 80026b8:	6303      	str	r3, [r0, #48]	; 0x30
 80026ba:	e7e8      	b.n	800268e <LL_TIM_Init+0x66>
 80026bc:	40010000 	.word	0x40010000

080026c0 <LL_TIM_OC_Init>:
 80026c0:	f5b1 7f80 	cmp.w	r1, #256	; 0x100
 80026c4:	b430      	push	{r4, r5}
 80026c6:	d070      	beq.n	80027aa <LL_TIM_OC_Init+0xea>
 80026c8:	d826      	bhi.n	8002718 <LL_TIM_OC_Init+0x58>
 80026ca:	2901      	cmp	r1, #1
 80026cc:	d04e      	beq.n	800276c <LL_TIM_OC_Init+0xac>
 80026ce:	2910      	cmp	r1, #16
 80026d0:	d148      	bne.n	8002764 <LL_TIM_OC_Init+0xa4>
 80026d2:	6a03      	ldr	r3, [r0, #32]
 80026d4:	6915      	ldr	r5, [r2, #16]
 80026d6:	f023 0310 	bic.w	r3, r3, #16
 80026da:	6203      	str	r3, [r0, #32]
 80026dc:	6a03      	ldr	r3, [r0, #32]
 80026de:	6844      	ldr	r4, [r0, #4]
 80026e0:	6981      	ldr	r1, [r0, #24]
 80026e2:	f023 0320 	bic.w	r3, r3, #32
 80026e6:	ea43 1305 	orr.w	r3, r3, r5, lsl #4
 80026ea:	6815      	ldr	r5, [r2, #0]
 80026ec:	f421 41e6 	bic.w	r1, r1, #29440	; 0x7300
 80026f0:	ea41 2105 	orr.w	r1, r1, r5, lsl #8
 80026f4:	6855      	ldr	r5, [r2, #4]
 80026f6:	f023 0310 	bic.w	r3, r3, #16
 80026fa:	ea43 1305 	orr.w	r3, r3, r5, lsl #4
 80026fe:	4d5d      	ldr	r5, [pc, #372]	; (8002874 <LL_TIM_OC_Init+0x1b4>)
 8002700:	42a8      	cmp	r0, r5
 8002702:	f000 809c 	beq.w	800283e <LL_TIM_OC_Init+0x17e>
 8002706:	68d5      	ldr	r5, [r2, #12]
 8002708:	6044      	str	r4, [r0, #4]
 800270a:	2200      	movs	r2, #0
 800270c:	6181      	str	r1, [r0, #24]
 800270e:	6385      	str	r5, [r0, #56]	; 0x38
 8002710:	6203      	str	r3, [r0, #32]
 8002712:	bc30      	pop	{r4, r5}
 8002714:	4610      	mov	r0, r2
 8002716:	4770      	bx	lr
 8002718:	f5b1 5f80 	cmp.w	r1, #4096	; 0x1000
 800271c:	d122      	bne.n	8002764 <LL_TIM_OC_Init+0xa4>
 800271e:	6a03      	ldr	r3, [r0, #32]
 8002720:	6915      	ldr	r5, [r2, #16]
 8002722:	f423 5380 	bic.w	r3, r3, #4096	; 0x1000
 8002726:	6203      	str	r3, [r0, #32]
 8002728:	6a03      	ldr	r3, [r0, #32]
 800272a:	6844      	ldr	r4, [r0, #4]
 800272c:	69c1      	ldr	r1, [r0, #28]
 800272e:	f423 5300 	bic.w	r3, r3, #8192	; 0x2000
 8002732:	ea43 3305 	orr.w	r3, r3, r5, lsl #12
 8002736:	6815      	ldr	r5, [r2, #0]
 8002738:	f421 41e6 	bic.w	r1, r1, #29440	; 0x7300
 800273c:	ea41 2105 	orr.w	r1, r1, r5, lsl #8
 8002740:	6855      	ldr	r5, [r2, #4]
 8002742:	f423 5380 	bic.w	r3, r3, #4096	; 0x1000
 8002746:	ea43 3305 	orr.w	r3, r3, r5, lsl #12
 800274a:	4d4a      	ldr	r5, [pc, #296]	; (8002874 <LL_TIM_OC_Init+0x1b4>)
 800274c:	42a8      	cmp	r0, r5
 800274e:	f000 808b 	beq.w	8002868 <LL_TIM_OC_Init+0x1a8>
 8002752:	68d5      	ldr	r5, [r2, #12]
 8002754:	6044      	str	r4, [r0, #4]
 8002756:	2200      	movs	r2, #0
 8002758:	61c1      	str	r1, [r0, #28]
 800275a:	6405      	str	r5, [r0, #64]	; 0x40
 800275c:	6203      	str	r3, [r0, #32]
 800275e:	bc30      	pop	{r4, r5}
 8002760:	4610      	mov	r0, r2
 8002762:	4770      	bx	lr
 8002764:	2201      	movs	r2, #1
 8002766:	4610      	mov	r0, r2
 8002768:	bc30      	pop	{r4, r5}
 800276a:	4770      	bx	lr
 800276c:	6a03      	ldr	r3, [r0, #32]
 800276e:	6915      	ldr	r5, [r2, #16]
 8002770:	f023 0301 	bic.w	r3, r3, #1
 8002774:	6203      	str	r3, [r0, #32]
 8002776:	6a03      	ldr	r3, [r0, #32]
 8002778:	6844      	ldr	r4, [r0, #4]
 800277a:	6981      	ldr	r1, [r0, #24]
 800277c:	f023 0302 	bic.w	r3, r3, #2
 8002780:	432b      	orrs	r3, r5
 8002782:	6815      	ldr	r5, [r2, #0]
 8002784:	f021 0173 	bic.w	r1, r1, #115	; 0x73
 8002788:	4329      	orrs	r1, r5
 800278a:	6855      	ldr	r5, [r2, #4]
 800278c:	f023 0301 	bic.w	r3, r3, #1
 8002790:	432b      	orrs	r3, r5
 8002792:	4d38      	ldr	r5, [pc, #224]	; (8002874 <LL_TIM_OC_Init+0x1b4>)
 8002794:	42a8      	cmp	r0, r5
 8002796:	d03e      	beq.n	8002816 <LL_TIM_OC_Init+0x156>
 8002798:	68d5      	ldr	r5, [r2, #12]
 800279a:	6044      	str	r4, [r0, #4]
 800279c:	2200      	movs	r2, #0
 800279e:	6181      	str	r1, [r0, #24]
 80027a0:	6345      	str	r5, [r0, #52]	; 0x34
 80027a2:	6203      	str	r3, [r0, #32]
 80027a4:	bc30      	pop	{r4, r5}
 80027a6:	4610      	mov	r0, r2
 80027a8:	4770      	bx	lr
 80027aa:	6a03      	ldr	r3, [r0, #32]
 80027ac:	6915      	ldr	r5, [r2, #16]
 80027ae:	f423 7380 	bic.w	r3, r3, #256	; 0x100
 80027b2:	6203      	str	r3, [r0, #32]
 80027b4:	6a03      	ldr	r3, [r0, #32]
 80027b6:	6844      	ldr	r4, [r0, #4]
 80027b8:	69c1      	ldr	r1, [r0, #28]
 80027ba:	f423 7300 	bic.w	r3, r3, #512	; 0x200
 80027be:	ea43 2305 	orr.w	r3, r3, r5, lsl #8
 80027c2:	6815      	ldr	r5, [r2, #0]
 80027c4:	f021 0173 	bic.w	r1, r1, #115	; 0x73
 80027c8:	4329      	orrs	r1, r5
 80027ca:	6855      	ldr	r5, [r2, #4]
 80027cc:	f423 7380 	bic.w	r3, r3, #256	; 0x100
 80027d0:	ea43 2305 	orr.w	r3, r3, r5, lsl #8
 80027d4:	4d27      	ldr	r5, [pc, #156]	; (8002874 <LL_TIM_OC_Init+0x1b4>)
 80027d6:	42a8      	cmp	r0, r5
 80027d8:	d008      	beq.n	80027ec <LL_TIM_OC_Init+0x12c>
 80027da:	68d5      	ldr	r5, [r2, #12]
 80027dc:	6044      	str	r4, [r0, #4]
 80027de:	2200      	movs	r2, #0
 80027e0:	61c1      	str	r1, [r0, #28]
 80027e2:	63c5      	str	r5, [r0, #60]	; 0x3c
 80027e4:	6203      	str	r3, [r0, #32]
 80027e6:	bc30      	pop	{r4, r5}
 80027e8:	4610      	mov	r0, r2
 80027ea:	4770      	bx	lr
 80027ec:	6955      	ldr	r5, [r2, #20]
 80027ee:	f423 6300 	bic.w	r3, r3, #2048	; 0x800
 80027f2:	ea43 2385 	orr.w	r3, r3, r5, lsl #10
 80027f6:	6995      	ldr	r5, [r2, #24]
 80027f8:	f424 5480 	bic.w	r4, r4, #4096	; 0x1000
 80027fc:	ea44 1405 	orr.w	r4, r4, r5, lsl #4
 8002800:	6895      	ldr	r5, [r2, #8]
 8002802:	f423 6380 	bic.w	r3, r3, #1024	; 0x400
 8002806:	ea43 2385 	orr.w	r3, r3, r5, lsl #10
 800280a:	69d5      	ldr	r5, [r2, #28]
 800280c:	f424 5400 	bic.w	r4, r4, #8192	; 0x2000
 8002810:	ea44 1445 	orr.w	r4, r4, r5, lsl #5
 8002814:	e7e1      	b.n	80027da <LL_TIM_OC_Init+0x11a>
 8002816:	6955      	ldr	r5, [r2, #20]
 8002818:	f023 0308 	bic.w	r3, r3, #8
 800281c:	ea43 0385 	orr.w	r3, r3, r5, lsl #2
 8002820:	6995      	ldr	r5, [r2, #24]
 8002822:	f424 7480 	bic.w	r4, r4, #256	; 0x100
 8002826:	432c      	orrs	r4, r5
 8002828:	6895      	ldr	r5, [r2, #8]
 800282a:	f023 0304 	bic.w	r3, r3, #4
 800282e:	ea43 0385 	orr.w	r3, r3, r5, lsl #2
 8002832:	69d5      	ldr	r5, [r2, #28]
 8002834:	f424 7400 	bic.w	r4, r4, #512	; 0x200
 8002838:	ea44 0445 	orr.w	r4, r4, r5, lsl #1
 800283c:	e7ac      	b.n	8002798 <LL_TIM_OC_Init+0xd8>
 800283e:	6955      	ldr	r5, [r2, #20]
 8002840:	f023 0380 	bic.w	r3, r3, #128	; 0x80
 8002844:	ea43 1385 	orr.w	r3, r3, r5, lsl #6
 8002848:	6995      	ldr	r5, [r2, #24]
 800284a:	f424 6480 	bic.w	r4, r4, #1024	; 0x400
 800284e:	ea44 0485 	orr.w	r4, r4, r5, lsl #2
 8002852:	6895      	ldr	r5, [r2, #8]
 8002854:	f023 0340 	bic.w	r3, r3, #64	; 0x40
 8002858:	ea43 1385 	orr.w	r3, r3, r5, lsl #6
 800285c:	69d5      	ldr	r5, [r2, #28]
 800285e:	f424 6400 	bic.w	r4, r4, #2048	; 0x800
 8002862:	ea44 04c5 	orr.w	r4, r4, r5, lsl #3
 8002866:	e74e      	b.n	8002706 <LL_TIM_OC_Init+0x46>
 8002868:	6995      	ldr	r5, [r2, #24]
 800286a:	f424 4480 	bic.w	r4, r4, #16384	; 0x4000
 800286e:	ea44 1485 	orr.w	r4, r4, r5, lsl #6
 8002872:	e76e      	b.n	8002752 <LL_TIM_OC_Init+0x92>
 8002874:	40010000 	.word	0x40010000

08002878 <LL_Init1msTick>:
 8002878:	4b06      	ldr	r3, [pc, #24]	; (8002894 <LL_Init1msTick+0x1c>)
 800287a:	fba3 3000 	umull	r3, r0, r3, r0
 800287e:	f04f 22e0 	mov.w	r2, #3758153728	; 0xe000e000
 8002882:	0983      	lsrs	r3, r0, #6
 8002884:	3b01      	subs	r3, #1
 8002886:	2000      	movs	r0, #0
 8002888:	2105      	movs	r1, #5
 800288a:	6153      	str	r3, [r2, #20]
 800288c:	6190      	str	r0, [r2, #24]
 800288e:	6111      	str	r1, [r2, #16]
 8002890:	4770      	bx	lr
 8002892:	bf00      	nop
 8002894:	10624dd3 	.word	0x10624dd3

08002898 <LL_mDelay>:
 8002898:	f04f 23e0 	mov.w	r3, #3758153728	; 0xe000e000
 800289c:	b082      	sub	sp, #8
 800289e:	691b      	ldr	r3, [r3, #16]
 80028a0:	9301      	str	r3, [sp, #4]
 80028a2:	1c42      	adds	r2, r0, #1
 80028a4:	9b01      	ldr	r3, [sp, #4]
 80028a6:	bf18      	it	ne
 80028a8:	3001      	addne	r0, #1
 80028aa:	f04f 22e0 	mov.w	r2, #3758153728	; 0xe000e000
 80028ae:	6913      	ldr	r3, [r2, #16]
 80028b0:	03db      	lsls	r3, r3, #15
 80028b2:	d5fc      	bpl.n	80028ae <LL_mDelay+0x16>
 80028b4:	3801      	subs	r0, #1
 80028b6:	d1fa      	bne.n	80028ae <LL_mDelay+0x16>
 80028b8:	b002      	add	sp, #8
 80028ba:	4770      	bx	lr

080028bc <LL_SetSystemCoreClock>:
 80028bc:	4b01      	ldr	r3, [pc, #4]	; (80028c4 <LL_SetSystemCoreClock+0x8>)
 80028be:	6018      	str	r0, [r3, #0]
 80028c0:	4770      	bx	lr
 80028c2:	bf00      	nop
 80028c4:	20000000 	.word	0x20000000

080028c8 <XPT2046_ConvertPoint>:
 80028c8:	e92d 47f0 	stmdb	sp!, {r4, r5, r6, r7, r8, r9, sl, lr}
 80028cc:	4614      	mov	r4, r2
 80028ce:	684d      	ldr	r5, [r1, #4]
 80028d0:	68e3      	ldr	r3, [r4, #12]
 80028d2:	6852      	ldr	r2, [r2, #4]
 80028d4:	4606      	mov	r6, r0
 80028d6:	6808      	ldr	r0, [r1, #0]
 80028d8:	fb05 fc03 	mul.w	ip, r5, r3
 80028dc:	6823      	ldr	r3, [r4, #0]
 80028de:	ea4f 7ee0 	mov.w	lr, r0, asr #31
 80028e2:	468a      	mov	sl, r1
 80028e4:	fb00 f202 	mul.w	r2, r0, r2
 80028e8:	68a1      	ldr	r1, [r4, #8]
 80028ea:	17ef      	asrs	r7, r5, #31
 80028ec:	fb0e 2203 	mla	r2, lr, r3, r2
 80028f0:	fba3 3000 	umull	r3, r0, r3, r0
 80028f4:	e9d4 890c 	ldrd	r8, r9, [r4, #48]	; 0x30
 80028f8:	fb07 cc01 	mla	ip, r7, r1, ip
 80028fc:	4402      	add	r2, r0
 80028fe:	fba1 1e05 	umull	r1, lr, r1, r5
 8002902:	6920      	ldr	r0, [r4, #16]
 8002904:	185b      	adds	r3, r3, r1
 8002906:	44f4      	add	ip, lr
 8002908:	6961      	ldr	r1, [r4, #20]
 800290a:	eb42 020c 	adc.w	r2, r2, ip
 800290e:	1818      	adds	r0, r3, r0
 8002910:	eb42 0101 	adc.w	r1, r2, r1
 8002914:	464b      	mov	r3, r9
 8002916:	4642      	mov	r2, r8
 8002918:	f7fd fcba 	bl	8000290 <__aeabi_ldivmod>
 800291c:	6030      	str	r0, [r6, #0]
 800291e:	f8da 0000 	ldr.w	r0, [sl]
 8002922:	69e1      	ldr	r1, [r4, #28]
 8002924:	f8d4 c020 	ldr.w	ip, [r4, #32]
 8002928:	fb00 fe01 	mul.w	lr, r0, r1
 800292c:	6a61      	ldr	r1, [r4, #36]	; 0x24
 800292e:	4642      	mov	r2, r8
 8002930:	fb05 f801 	mul.w	r8, r5, r1
 8002934:	fb07 870c 	mla	r7, r7, ip, r8
 8002938:	69a1      	ldr	r1, [r4, #24]
 800293a:	fbac 5c05 	umull	r5, ip, ip, r5
 800293e:	4467      	add	r7, ip
 8002940:	ea4f 7ce0 	mov.w	ip, r0, asr #31
 8002944:	fb0c ee01 	mla	lr, ip, r1, lr
 8002948:	fba1 c100 	umull	ip, r1, r1, r0
 800294c:	6aa0      	ldr	r0, [r4, #40]	; 0x28
 800294e:	6ae4      	ldr	r4, [r4, #44]	; 0x2c
 8002950:	eb1c 0c05 	adds.w	ip, ip, r5
 8002954:	4471      	add	r1, lr
 8002956:	eb41 0107 	adc.w	r1, r1, r7
 800295a:	eb1c 0000 	adds.w	r0, ip, r0
 800295e:	464b      	mov	r3, r9
 8002960:	eb41 0104 	adc.w	r1, r1, r4
 8002964:	f7fd fc94 	bl	8000290 <__aeabi_ldivmod>
 8002968:	6070      	str	r0, [r6, #4]
 800296a:	e8bd 87f0 	ldmia.w	sp!, {r4, r5, r6, r7, r8, r9, sl, pc}
 800296e:	bf00      	nop

08002970 <XPT2046_CalibrateTouch>:
 8002970:	e92d 4ff0 	stmdb	sp!, {r4, r5, r6, r7, r8, r9, sl, fp, lr}
 8002974:	ed2d 8b02 	vpush	{d8}
 8002978:	88ca      	ldrh	r2, [r1, #6]
 800297a:	888b      	ldrh	r3, [r1, #4]
 800297c:	b0cf      	sub	sp, #316	; 0x13c
 800297e:	460d      	mov	r5, r1
 8002980:	ee08 1a10 	vmov	s16, r1
 8002984:	1f51      	subs	r1, r2, #5
 8002986:	b289      	uxth	r1, r1
 8002988:	f8ad 10da 	strh.w	r1, [sp, #218]	; 0xda
 800298c:	f8ad 10e2 	strh.w	r1, [sp, #226]	; 0xe2
 8002990:	0859      	lsrs	r1, r3, #1
 8002992:	3b05      	subs	r3, #5
 8002994:	b29b      	uxth	r3, r3
 8002996:	4681      	mov	r9, r0
 8002998:	f8ad 30dc 	strh.w	r3, [sp, #220]	; 0xdc
 800299c:	f8ad 30e0 	strh.w	r3, [sp, #224]	; 0xe0
 80029a0:	f1a2 0314 	sub.w	r3, r2, #20
 80029a4:	0852      	lsrs	r2, r2, #1
 80029a6:	2405      	movs	r4, #5
 80029a8:	f04f 1005 	mov.w	r0, #327685	; 0x50005
 80029ac:	f8ad 20e6 	strh.w	r2, [sp, #230]	; 0xe6
 80029b0:	f8ad 30d2 	strh.w	r3, [sp, #210]	; 0xd2
 80029b4:	2214      	movs	r2, #20
 80029b6:	f109 0318 	add.w	r3, r9, #24
 80029ba:	9035      	str	r0, [sp, #212]	; 0xd4
 80029bc:	f8ad 40d8 	strh.w	r4, [sp, #216]	; 0xd8
 80029c0:	f8ad 40de 	strh.w	r4, [sp, #222]	; 0xde
 80029c4:	f8ad 10e4 	strh.w	r1, [sp, #228]	; 0xe4
 80029c8:	f8ad 10cc 	strh.w	r1, [sp, #204]	; 0xcc
 80029cc:	f8ad 10d0 	strh.w	r1, [sp, #208]	; 0xd0
 80029d0:	f8ad 20ce 	strh.w	r2, [sp, #206]	; 0xce
 80029d4:	930f      	str	r3, [sp, #60]	; 0x3c
 80029d6:	46a8      	mov	r8, r5
 80029d8:	f06f 417f 	mvn.w	r1, #4278190080	; 0xff000000
 80029dc:	4640      	mov	r0, r8
 80029de:	f7fe fde5 	bl	80015ac <LCD_Fill>
 80029e2:	f06f 427f 	mvn.w	r2, #4278190080	; 0xff000000
 80029e6:	2000      	movs	r0, #0
 80029e8:	e9cd 2002 	strd	r2, r0, [sp, #8]
 80029ec:	4a20      	ldr	r2, [pc, #128]	; (8002a70 <XPT2046_CalibrateTouch+0x100>)
 80029ee:	9200      	str	r2, [sp, #0]
 80029f0:	23ff      	movs	r3, #255	; 0xff
 80029f2:	2200      	movs	r2, #0
 80029f4:	4611      	mov	r1, r2
 80029f6:	9301      	str	r3, [sp, #4]
 80029f8:	4640      	mov	r0, r8
 80029fa:	4b1e      	ldr	r3, [pc, #120]	; (8002a74 <XPT2046_CalibrateTouch+0x104>)
 80029fc:	f7ff fc6a 	bl	80022d4 <LCD_WriteString>
 8002a00:	f44f 607a 	mov.w	r0, #4000	; 0xfa0
 8002a04:	f7ff ff48 	bl	8002898 <LL_mDelay>
 8002a08:	f06f 417f 	mvn.w	r1, #4278190080	; 0xff000000
 8002a0c:	4640      	mov	r0, r8
 8002a0e:	f7fe fdcd 	bl	80015ac <LCD_Fill>
 8002a12:	ab44      	add	r3, sp, #272	; 0x110
 8002a14:	ac35      	add	r4, sp, #212	; 0xd4
 8002a16:	ae3a      	add	r6, sp, #232	; 0xe8
 8002a18:	461d      	mov	r5, r3
 8002a1a:	2300      	movs	r3, #0
 8002a1c:	9300      	str	r3, [sp, #0]
 8002a1e:	f9b4 a002 	ldrsh.w	sl, [r4, #2]
 8002a22:	f9b4 1000 	ldrsh.w	r1, [r4]
 8002a26:	8867      	ldrh	r7, [r4, #2]
 8002a28:	f8b4 b000 	ldrh.w	fp, [r4]
 8002a2c:	9105      	str	r1, [sp, #20]
 8002a2e:	4652      	mov	r2, sl
 8002a30:	4640      	mov	r0, r8
 8002a32:	2305      	movs	r3, #5
 8002a34:	f7ff f8b0 	bl	8001b98 <LCD_DrawCircle>
 8002a38:	f44f 037f 	mov.w	r3, #16711680	; 0xff0000
 8002a3c:	9905      	ldr	r1, [sp, #20]
 8002a3e:	9301      	str	r3, [sp, #4]
 8002a40:	1d7b      	adds	r3, r7, #5
 8002a42:	b21b      	sxth	r3, r3
 8002a44:	1f7a      	subs	r2, r7, #5
 8002a46:	9300      	str	r3, [sp, #0]
 8002a48:	4640      	mov	r0, r8
 8002a4a:	460b      	mov	r3, r1
 8002a4c:	b212      	sxth	r2, r2
 8002a4e:	f7fe fdcf 	bl	80015f0 <LCD_DrawLine>
 8002a52:	f44f 037f 	mov.w	r3, #16711680	; 0xff0000
 8002a56:	e9cd a300 	strd	sl, r3, [sp]
 8002a5a:	f1ab 0105 	sub.w	r1, fp, #5
 8002a5e:	f10b 0305 	add.w	r3, fp, #5
 8002a62:	4652      	mov	r2, sl
 8002a64:	b21b      	sxth	r3, r3
 8002a66:	b209      	sxth	r1, r1
 8002a68:	4640      	mov	r0, r8
 8002a6a:	f7fe fdc1 	bl	80015f0 <LCD_DrawLine>
 8002a6e:	e004      	b.n	8002a7a <XPT2046_CalibrateTouch+0x10a>
 8002a70:	20000004 	.word	0x20000004
 8002a74:	08005de4 	.word	0x08005de4
 8002a78:	bf00      	nop
 8002a7a:	f899 3029 	ldrb.w	r3, [r9, #41]	; 0x29
 8002a7e:	2b00      	cmp	r3, #0
 8002a80:	d0fa      	beq.n	8002a78 <XPT2046_CalibrateTouch+0x108>
 8002a82:	4648      	mov	r0, r9
 8002a84:	f001 f97e 	bl	8003d84 <XPT2046_GetTouch>
 8002a88:	f899 3029 	ldrb.w	r3, [r9, #41]	; 0x29
 8002a8c:	2b00      	cmp	r3, #0
 8002a8e:	d1f8      	bne.n	8002a82 <XPT2046_CalibrateTouch+0x112>
 8002a90:	f8d9 2020 	ldr.w	r2, [r9, #32]
 8002a94:	2a03      	cmp	r2, #3
 8002a96:	d9ef      	bls.n	8002a78 <XPT2046_CalibrateTouch+0x108>
 8002a98:	469a      	mov	sl, r3
 8002a9a:	9b0f      	ldr	r3, [sp, #60]	; 0x3c
 8002a9c:	e893 0003 	ldmia.w	r3, {r0, r1}
 8002aa0:	e9c6 b700 	strd	fp, r7, [r6]
 8002aa4:	e885 0003 	stmia.w	r5, {r0, r1}
 8002aa8:	f06f 417f 	mvn.w	r1, #4278190080	; 0xff000000
 8002aac:	4640      	mov	r0, r8
 8002aae:	f7fe fd7d 	bl	80015ac <LCD_Fill>
 8002ab2:	f240 5014 	movw	r0, #1300	; 0x514
 8002ab6:	f7ff feef 	bl	8002898 <LL_mDelay>
 8002aba:	3404      	adds	r4, #4
 8002abc:	ab3a      	add	r3, sp, #232	; 0xe8
 8002abe:	42a3      	cmp	r3, r4
 8002ac0:	f106 0608 	add.w	r6, r6, #8
 8002ac4:	f105 0508 	add.w	r5, r5, #8
 8002ac8:	d1a7      	bne.n	8002a1a <XPT2046_CalibrateTouch+0xaa>
 8002aca:	e9dd 2145 	ldrd	r2, r1, [sp, #276]	; 0x114
 8002ace:	9844      	ldr	r0, [sp, #272]	; 0x110
 8002ad0:	9b47      	ldr	r3, [sp, #284]	; 0x11c
 8002ad2:	fb00 f500 	mul.w	r5, r0, r0
 8002ad6:	fb01 f401 	mul.w	r4, r1, r1
 8002ada:	192e      	adds	r6, r5, r4
 8002adc:	ea4f 74e4 	mov.w	r4, r4, asr #31
 8002ae0:	eb44 74e5 	adc.w	r4, r4, r5, asr #31
 8002ae4:	fb02 fb02 	mul.w	fp, r2, r2
 8002ae8:	9406      	str	r4, [sp, #24]
 8002aea:	fb03 f403 	mul.w	r4, r3, r3
 8002aee:	eb1b 0504 	adds.w	r5, fp, r4
 8002af2:	ea4f 74e4 	mov.w	r4, r4, asr #31
 8002af6:	eb44 7beb 	adc.w	fp, r4, fp, asr #31
 8002afa:	9507      	str	r5, [sp, #28]
 8002afc:	fb03 f401 	mul.w	r4, r3, r1
 8002b00:	fb02 f500 	mul.w	r5, r2, r0
 8002b04:	192f      	adds	r7, r5, r4
 8002b06:	ea4f 74e4 	mov.w	r4, r4, asr #31
 8002b0a:	eb44 74e5 	adc.w	r4, r4, r5, asr #31
 8002b0e:	9708      	str	r7, [sp, #32]
 8002b10:	9409      	str	r4, [sp, #36]	; 0x24
 8002b12:	1847      	adds	r7, r0, r1
 8002b14:	ea4f 74e1 	mov.w	r4, r1, asr #31
 8002b18:	eb44 7ce0 	adc.w	ip, r4, r0, asr #31
 8002b1c:	9c3c      	ldr	r4, [sp, #240]	; 0xf0
 8002b1e:	9605      	str	r6, [sp, #20]
 8002b20:	9e3a      	ldr	r6, [sp, #232]	; 0xe8
 8002b22:	f8cd c02c 	str.w	ip, [sp, #44]	; 0x2c
 8002b26:	18d5      	adds	r5, r2, r3
 8002b28:	fb04 fc01 	mul.w	ip, r4, r1
 8002b2c:	ea4f 74e3 	mov.w	r4, r3, asr #31
 8002b30:	fb06 fe00 	mul.w	lr, r6, r0
 8002b34:	970a      	str	r7, [sp, #40]	; 0x28
 8002b36:	eb44 77e2 	adc.w	r7, r4, r2, asr #31
 8002b3a:	970d      	str	r7, [sp, #52]	; 0x34
 8002b3c:	eb1e 070c 	adds.w	r7, lr, ip
 8002b40:	970e      	str	r7, [sp, #56]	; 0x38
 8002b42:	ea4f 7cec 	mov.w	ip, ip, asr #31
 8002b46:	9f3c      	ldr	r7, [sp, #240]	; 0xf0
 8002b48:	9c3d      	ldr	r4, [sp, #244]	; 0xf4
 8002b4a:	950c      	str	r5, [sp, #48]	; 0x30
 8002b4c:	eb4c 7cee 	adc.w	ip, ip, lr, asr #31
 8002b50:	f8cd c040 	str.w	ip, [sp, #64]	; 0x40
 8002b54:	fb06 fe02 	mul.w	lr, r6, r2
 8002b58:	fb07 fc03 	mul.w	ip, r7, r3
 8002b5c:	eb1e 070c 	adds.w	r7, lr, ip
 8002b60:	9d3b      	ldr	r5, [sp, #236]	; 0xec
 8002b62:	9711      	str	r7, [sp, #68]	; 0x44
 8002b64:	9f3c      	ldr	r7, [sp, #240]	; 0xf0
 8002b66:	ea4f 7cec 	mov.w	ip, ip, asr #31
 8002b6a:	fb05 f000 	mul.w	r0, r5, r0
 8002b6e:	fb04 f101 	mul.w	r1, r4, r1
 8002b72:	eb4c 7eee 	adc.w	lr, ip, lr, asr #31
 8002b76:	ea4f 7ce7 	mov.w	ip, r7, asr #31
 8002b7a:	19f7      	adds	r7, r6, r7
 8002b7c:	fb05 f202 	mul.w	r2, r5, r2
 8002b80:	fb04 f303 	mul.w	r3, r4, r3
 8002b84:	eb4c 7ce6 	adc.w	ip, ip, r6, asr #31
 8002b88:	9712      	str	r7, [sp, #72]	; 0x48
 8002b8a:	1847      	adds	r7, r0, r1
 8002b8c:	ea4f 71e1 	mov.w	r1, r1, asr #31
 8002b90:	9e48      	ldr	r6, [sp, #288]	; 0x120
 8002b92:	9713      	str	r7, [sp, #76]	; 0x4c
 8002b94:	eb41 71e0 	adc.w	r1, r1, r0, asr #31
 8002b98:	18d0      	adds	r0, r2, r3
 8002b9a:	ea4f 73e3 	mov.w	r3, r3, asr #31
 8002b9e:	9015      	str	r0, [sp, #84]	; 0x54
 8002ba0:	eb43 70e2 	adc.w	r0, r3, r2, asr #31
 8002ba4:	9a05      	ldr	r2, [sp, #20]
 8002ba6:	9016      	str	r0, [sp, #88]	; 0x58
 8002ba8:	fb06 f306 	mul.w	r3, r6, r6
 8002bac:	1928      	adds	r0, r5, r4
 8002bae:	ea4f 74e4 	mov.w	r4, r4, asr #31
 8002bb2:	eb44 74e5 	adc.w	r4, r4, r5, asr #31
 8002bb6:	189d      	adds	r5, r3, r2
 8002bb8:	9114      	str	r1, [sp, #80]	; 0x50
 8002bba:	9017      	str	r0, [sp, #92]	; 0x5c
 8002bbc:	9949      	ldr	r1, [sp, #292]	; 0x124
 8002bbe:	9505      	str	r5, [sp, #20]
 8002bc0:	9a06      	ldr	r2, [sp, #24]
 8002bc2:	9d07      	ldr	r5, [sp, #28]
 8002bc4:	9f0e      	ldr	r7, [sp, #56]	; 0x38
 8002bc6:	eb42 73e3 	adc.w	r3, r2, r3, asr #31
 8002bca:	9306      	str	r3, [sp, #24]
 8002bcc:	fb01 f301 	mul.w	r3, r1, r1
 8002bd0:	9a08      	ldr	r2, [sp, #32]
 8002bd2:	195d      	adds	r5, r3, r5
 8002bd4:	eb4b 7be3 	adc.w	fp, fp, r3, asr #31
 8002bd8:	fb01 f306 	mul.w	r3, r1, r6
 8002bdc:	9507      	str	r5, [sp, #28]
 8002bde:	189d      	adds	r5, r3, r2
 8002be0:	9a09      	ldr	r2, [sp, #36]	; 0x24
 8002be2:	eb42 72e3 	adc.w	r2, r2, r3, asr #31
 8002be6:	9b0a      	ldr	r3, [sp, #40]	; 0x28
 8002be8:	9208      	str	r2, [sp, #32]
 8002bea:	18f2      	adds	r2, r6, r3
 8002bec:	9b0b      	ldr	r3, [sp, #44]	; 0x2c
 8002bee:	9209      	str	r2, [sp, #36]	; 0x24
 8002bf0:	eb43 73e6 	adc.w	r3, r3, r6, asr #31
 8002bf4:	930a      	str	r3, [sp, #40]	; 0x28
 8002bf6:	9b0c      	ldr	r3, [sp, #48]	; 0x30
 8002bf8:	18cb      	adds	r3, r1, r3
 8002bfa:	930b      	str	r3, [sp, #44]	; 0x2c
 8002bfc:	9b0d      	ldr	r3, [sp, #52]	; 0x34
 8002bfe:	eb43 73e1 	adc.w	r3, r3, r1, asr #31
 8002c02:	930c      	str	r3, [sp, #48]	; 0x30
 8002c04:	e9dd 233e 	ldrd	r2, r3, [sp, #248]	; 0xf8
 8002c08:	fb02 f006 	mul.w	r0, r2, r6
 8002c0c:	19c7      	adds	r7, r0, r7
 8002c0e:	970d      	str	r7, [sp, #52]	; 0x34
 8002c10:	9f10      	ldr	r7, [sp, #64]	; 0x40
 8002c12:	eb47 77e0 	adc.w	r7, r7, r0, asr #31
 8002c16:	970e      	str	r7, [sp, #56]	; 0x38
 8002c18:	9f11      	ldr	r7, [sp, #68]	; 0x44
 8002c1a:	fb02 f001 	mul.w	r0, r2, r1
 8002c1e:	19c7      	adds	r7, r0, r7
 8002c20:	eb4e 7ee0 	adc.w	lr, lr, r0, asr #31
 8002c24:	9812      	ldr	r0, [sp, #72]	; 0x48
 8002c26:	9710      	str	r7, [sp, #64]	; 0x40
 8002c28:	1810      	adds	r0, r2, r0
 8002c2a:	eb4c 7ce2 	adc.w	ip, ip, r2, asr #31
 8002c2e:	9a13      	ldr	r2, [sp, #76]	; 0x4c
 8002c30:	9011      	str	r0, [sp, #68]	; 0x44
 8002c32:	fb03 f606 	mul.w	r6, r3, r6
 8002c36:	18b2      	adds	r2, r6, r2
 8002c38:	9815      	ldr	r0, [sp, #84]	; 0x54
 8002c3a:	9212      	str	r2, [sp, #72]	; 0x48
 8002c3c:	9a14      	ldr	r2, [sp, #80]	; 0x50
 8002c3e:	fb03 f101 	mul.w	r1, r3, r1
 8002c42:	eb42 76e6 	adc.w	r6, r2, r6, asr #31
 8002c46:	180a      	adds	r2, r1, r0
 8002c48:	9816      	ldr	r0, [sp, #88]	; 0x58
 8002c4a:	9213      	str	r2, [sp, #76]	; 0x4c
 8002c4c:	eb40 71e1 	adc.w	r1, r0, r1, asr #31
 8002c50:	9114      	str	r1, [sp, #80]	; 0x50
 8002c52:	9817      	ldr	r0, [sp, #92]	; 0x5c
 8002c54:	9f0d      	ldr	r7, [sp, #52]	; 0x34
 8002c56:	1819      	adds	r1, r3, r0
 8002c58:	eb44 74e3 	adc.w	r4, r4, r3, asr #31
 8002c5c:	e9dd 234a 	ldrd	r2, r3, [sp, #296]	; 0x128
 8002c60:	9805      	ldr	r0, [sp, #20]
 8002c62:	9115      	str	r1, [sp, #84]	; 0x54
 8002c64:	fb02 f102 	mul.w	r1, r2, r2
 8002c68:	9416      	str	r4, [sp, #88]	; 0x58
 8002c6a:	180c      	adds	r4, r1, r0
 8002c6c:	9806      	ldr	r0, [sp, #24]
 8002c6e:	9405      	str	r4, [sp, #20]
 8002c70:	eb40 70e1 	adc.w	r0, r0, r1, asr #31
 8002c74:	9006      	str	r0, [sp, #24]
 8002c76:	9807      	ldr	r0, [sp, #28]
 8002c78:	fb03 f103 	mul.w	r1, r3, r3
 8002c7c:	1808      	adds	r0, r1, r0
 8002c7e:	eb4b 7be1 	adc.w	fp, fp, r1, asr #31
 8002c82:	9007      	str	r0, [sp, #28]
 8002c84:	fb03 f102 	mul.w	r1, r3, r2
 8002c88:	9808      	ldr	r0, [sp, #32]
 8002c8a:	194d      	adds	r5, r1, r5
 8002c8c:	eb40 74e1 	adc.w	r4, r0, r1, asr #31
 8002c90:	9909      	ldr	r1, [sp, #36]	; 0x24
 8002c92:	9408      	str	r4, [sp, #32]
 8002c94:	1851      	adds	r1, r2, r1
 8002c96:	9117      	str	r1, [sp, #92]	; 0x5c
 8002c98:	990a      	ldr	r1, [sp, #40]	; 0x28
 8002c9a:	eb41 71e2 	adc.w	r1, r1, r2, asr #31
 8002c9e:	9118      	str	r1, [sp, #96]	; 0x60
 8002ca0:	990b      	ldr	r1, [sp, #44]	; 0x2c
 8002ca2:	1859      	adds	r1, r3, r1
 8002ca4:	9119      	str	r1, [sp, #100]	; 0x64
 8002ca6:	990c      	ldr	r1, [sp, #48]	; 0x30
 8002ca8:	eb41 71e3 	adc.w	r1, r1, r3, asr #31
 8002cac:	910c      	str	r1, [sp, #48]	; 0x30
 8002cae:	e9dd 0140 	ldrd	r0, r1, [sp, #256]	; 0x100
 8002cb2:	fb00 f402 	mul.w	r4, r0, r2
 8002cb6:	19e7      	adds	r7, r4, r7
 8002cb8:	970d      	str	r7, [sp, #52]	; 0x34
 8002cba:	9f0e      	ldr	r7, [sp, #56]	; 0x38
 8002cbc:	eb47 77e4 	adc.w	r7, r7, r4, asr #31
 8002cc0:	970e      	str	r7, [sp, #56]	; 0x38
 8002cc2:	9f10      	ldr	r7, [sp, #64]	; 0x40
 8002cc4:	fb00 f403 	mul.w	r4, r0, r3
 8002cc8:	19e7      	adds	r7, r4, r7
 8002cca:	eb4e 7ee4 	adc.w	lr, lr, r4, asr #31
 8002cce:	9c11      	ldr	r4, [sp, #68]	; 0x44
 8002cd0:	9710      	str	r7, [sp, #64]	; 0x40
 8002cd2:	1904      	adds	r4, r0, r4
 8002cd4:	eb4c 7ce0 	adc.w	ip, ip, r0, asr #31
 8002cd8:	9812      	ldr	r0, [sp, #72]	; 0x48
 8002cda:	9411      	str	r4, [sp, #68]	; 0x44
 8002cdc:	fb01 f202 	mul.w	r2, r1, r2
 8002ce0:	1810      	adds	r0, r2, r0
 8002ce2:	901a      	str	r0, [sp, #104]	; 0x68
 8002ce4:	eb46 76e2 	adc.w	r6, r6, r2, asr #31
 8002ce8:	9a13      	ldr	r2, [sp, #76]	; 0x4c
 8002cea:	9c16      	ldr	r4, [sp, #88]	; 0x58
 8002cec:	961b      	str	r6, [sp, #108]	; 0x6c
 8002cee:	fb01 f303 	mul.w	r3, r1, r3
 8002cf2:	189a      	adds	r2, r3, r2
 8002cf4:	921c      	str	r2, [sp, #112]	; 0x70
 8002cf6:	9a14      	ldr	r2, [sp, #80]	; 0x50
 8002cf8:	9806      	ldr	r0, [sp, #24]
 8002cfa:	eb42 73e3 	adc.w	r3, r2, r3, asr #31
 8002cfe:	931d      	str	r3, [sp, #116]	; 0x74
 8002d00:	9b15      	ldr	r3, [sp, #84]	; 0x54
 8002d02:	18cb      	adds	r3, r1, r3
 8002d04:	931e      	str	r3, [sp, #120]	; 0x78
 8002d06:	e9dd 234c 	ldrd	r2, r3, [sp, #304]	; 0x130
 8002d0a:	eb44 76e1 	adc.w	r6, r4, r1, asr #31
 8002d0e:	9c05      	ldr	r4, [sp, #20]
 8002d10:	961f      	str	r6, [sp, #124]	; 0x7c
 8002d12:	fb02 f702 	mul.w	r7, r2, r2
 8002d16:	193c      	adds	r4, r7, r4
 8002d18:	9409      	str	r4, [sp, #36]	; 0x24
 8002d1a:	eb40 74e7 	adc.w	r4, r0, r7, asr #31
 8002d1e:	9807      	ldr	r0, [sp, #28]
 8002d20:	9412      	str	r4, [sp, #72]	; 0x48
 8002d22:	fb03 f603 	mul.w	r6, r3, r3
 8002d26:	1831      	adds	r1, r6, r0
 8002d28:	910a      	str	r1, [sp, #40]	; 0x28
 8002d2a:	9808      	ldr	r0, [sp, #32]
 8002d2c:	9f0d      	ldr	r7, [sp, #52]	; 0x34
 8002d2e:	fb03 f102 	mul.w	r1, r3, r2
 8002d32:	eb4b 76e6 	adc.w	r6, fp, r6, asr #31
 8002d36:	eb11 0b05 	adds.w	fp, r1, r5
 8002d3a:	eb40 71e1 	adc.w	r1, r0, r1, asr #31
 8002d3e:	9817      	ldr	r0, [sp, #92]	; 0x5c
 8002d40:	9d18      	ldr	r5, [sp, #96]	; 0x60
 8002d42:	1810      	adds	r0, r2, r0
 8002d44:	eb45 75e2 	adc.w	r5, r5, r2, asr #31
 8002d48:	950b      	str	r5, [sp, #44]	; 0x2c
 8002d4a:	9d19      	ldr	r5, [sp, #100]	; 0x64
 8002d4c:	9006      	str	r0, [sp, #24]
 8002d4e:	1958      	adds	r0, r3, r5
 8002d50:	9005      	str	r0, [sp, #20]
 8002d52:	9d0c      	ldr	r5, [sp, #48]	; 0x30
 8002d54:	e9dd 4042 	ldrd	r4, r0, [sp, #264]	; 0x108
 8002d58:	eb45 75e3 	adc.w	r5, r5, r3, asr #31
 8002d5c:	9507      	str	r5, [sp, #28]
 8002d5e:	fb04 f502 	mul.w	r5, r4, r2
 8002d62:	19ef      	adds	r7, r5, r7
 8002d64:	9708      	str	r7, [sp, #32]
 8002d66:	9f0e      	ldr	r7, [sp, #56]	; 0x38
 8002d68:	eb47 75e5 	adc.w	r5, r7, r5, asr #31
 8002d6c:	9513      	str	r5, [sp, #76]	; 0x4c
 8002d6e:	9f10      	ldr	r7, [sp, #64]	; 0x40
 8002d70:	fb04 f503 	mul.w	r5, r4, r3
 8002d74:	19ef      	adds	r7, r5, r7
 8002d76:	eb4e 7ee5 	adc.w	lr, lr, r5, asr #31
 8002d7a:	9d11      	ldr	r5, [sp, #68]	; 0x44
 8002d7c:	970c      	str	r7, [sp, #48]	; 0x30
 8002d7e:	1965      	adds	r5, r4, r5
 8002d80:	eb4c 7ce4 	adc.w	ip, ip, r4, asr #31
 8002d84:	9c1a      	ldr	r4, [sp, #104]	; 0x68
 8002d86:	f8cd c05c 	str.w	ip, [sp, #92]	; 0x5c
 8002d8a:	fb00 f202 	mul.w	r2, r0, r2
 8002d8e:	1914      	adds	r4, r2, r4
 8002d90:	9410      	str	r4, [sp, #64]	; 0x40
 8002d92:	9c1b      	ldr	r4, [sp, #108]	; 0x6c
 8002d94:	950e      	str	r5, [sp, #56]	; 0x38
 8002d96:	eb44 7ce2 	adc.w	ip, r4, r2, asr #31
 8002d9a:	9a1c      	ldr	r2, [sp, #112]	; 0x70
 8002d9c:	f8cd c054 	str.w	ip, [sp, #84]	; 0x54
 8002da0:	fb00 f303 	mul.w	r3, r0, r3
 8002da4:	189d      	adds	r5, r3, r2
 8002da6:	9a1d      	ldr	r2, [sp, #116]	; 0x74
 8002da8:	9c09      	ldr	r4, [sp, #36]	; 0x24
 8002daa:	9f0b      	ldr	r7, [sp, #44]	; 0x2c
 8002dac:	950d      	str	r5, [sp, #52]	; 0x34
 8002dae:	eb42 7ce3 	adc.w	ip, r2, r3, asr #31
 8002db2:	9a1e      	ldr	r2, [sp, #120]	; 0x78
 8002db4:	f8cd c058 	str.w	ip, [sp, #88]	; 0x58
 8002db8:	1883      	adds	r3, r0, r2
 8002dba:	9a1f      	ldr	r2, [sp, #124]	; 0x7c
 8002dbc:	9311      	str	r3, [sp, #68]	; 0x44
 8002dbe:	eb42 7ce0 	adc.w	ip, r2, r0, asr #31
 8002dc2:	9b0a      	ldr	r3, [sp, #40]	; 0x28
 8002dc4:	9a12      	ldr	r2, [sp, #72]	; 0x48
 8002dc6:	9806      	ldr	r0, [sp, #24]
 8002dc8:	f8cd e050 	str.w	lr, [sp, #80]	; 0x50
 8002dcc:	fb04 f506 	mul.w	r5, r4, r6
 8002dd0:	fb03 5e02 	mla	lr, r3, r2, r5
 8002dd4:	fb0b f507 	mul.w	r5, fp, r7
 8002dd8:	9a07      	ldr	r2, [sp, #28]
 8002dda:	f8cd c060 	str.w	ip, [sp, #96]	; 0x60
 8002dde:	fb00 5301 	mla	r3, r0, r1, r5
 8002de2:	9319      	str	r3, [sp, #100]	; 0x64
 8002de4:	9d12      	ldr	r5, [sp, #72]	; 0x48
 8002de6:	fb04 f302 	mul.w	r3, r4, r2
 8002dea:	9a05      	ldr	r2, [sp, #20]
 8002dec:	fb0b fc01 	mul.w	ip, fp, r1
 8002df0:	f8cd c06c 	str.w	ip, [sp, #108]	; 0x6c
 8002df4:	fb02 3c05 	mla	ip, r2, r5, r3
 8002df8:	9b0a      	ldr	r3, [sp, #40]	; 0x28
 8002dfa:	f8cd c074 	str.w	ip, [sp, #116]	; 0x74
 8002dfe:	fb03 f307 	mul.w	r3, r3, r7
 8002e02:	9f07      	ldr	r7, [sp, #28]
 8002e04:	fb00 3c06 	mla	ip, r0, r6, r3
 8002e08:	fb0b f307 	mul.w	r3, fp, r7
 8002e0c:	f8cd c078 	str.w	ip, [sp, #120]	; 0x78
 8002e10:	fb02 3c01 	mla	ip, r2, r1, r3
 8002e14:	f8cd c088 	str.w	ip, [sp, #136]	; 0x88
 8002e18:	9d13      	ldr	r5, [sp, #76]	; 0x4c
 8002e1a:	9b0a      	ldr	r3, [sp, #40]	; 0x28
 8002e1c:	9f08      	ldr	r7, [sp, #32]
 8002e1e:	fb03 f305 	mul.w	r3, r3, r5
 8002e22:	fb07 3c06 	mla	ip, r7, r6, r3
 8002e26:	9f14      	ldr	r7, [sp, #80]	; 0x50
 8002e28:	9d0c      	ldr	r5, [sp, #48]	; 0x30
 8002e2a:	f8cd c08c 	str.w	ip, [sp, #140]	; 0x8c
 8002e2e:	fb0b f307 	mul.w	r3, fp, r7
 8002e32:	fb05 3c01 	mla	ip, r5, r1, r3
 8002e36:	463b      	mov	r3, r7
 8002e38:	9f0b      	ldr	r7, [sp, #44]	; 0x2c
 8002e3a:	f8cd c090 	str.w	ip, [sp, #144]	; 0x90
 8002e3e:	fb00 f303 	mul.w	r3, r0, r3
 8002e42:	fb05 3c07 	mla	ip, r5, r7, r3
 8002e46:	e9dd 7507 	ldrd	r7, r5, [sp, #28]
 8002e4a:	9b13      	ldr	r3, [sp, #76]	; 0x4c
 8002e4c:	f8cd c080 	str.w	ip, [sp, #128]	; 0x80
 8002e50:	fb02 f303 	mul.w	r3, r2, r3
 8002e54:	fb05 3c07 	mla	ip, r5, r7, r3
 8002e58:	9b14      	ldr	r3, [sp, #80]	; 0x50
 8002e5a:	9d12      	ldr	r5, [sp, #72]	; 0x48
 8002e5c:	f8cd c084 	str.w	ip, [sp, #132]	; 0x84
 8002e60:	fb04 f303 	mul.w	r3, r4, r3
 8002e64:	9c0c      	ldr	r4, [sp, #48]	; 0x30
 8002e66:	9f10      	ldr	r7, [sp, #64]	; 0x40
 8002e68:	fb04 3c05 	mla	ip, r4, r5, r3
 8002e6c:	9b13      	ldr	r3, [sp, #76]	; 0x4c
 8002e6e:	9d08      	ldr	r5, [sp, #32]
 8002e70:	9c15      	ldr	r4, [sp, #84]	; 0x54
 8002e72:	f8cd c094 	str.w	ip, [sp, #148]	; 0x94
 8002e76:	fb0b f303 	mul.w	r3, fp, r3
 8002e7a:	fb05 3c01 	mla	ip, r5, r1, r3
 8002e7e:	9b0a      	ldr	r3, [sp, #40]	; 0x28
 8002e80:	9d16      	ldr	r5, [sp, #88]	; 0x58
 8002e82:	f8cd c098 	str.w	ip, [sp, #152]	; 0x98
 8002e86:	fb03 f304 	mul.w	r3, r3, r4
 8002e8a:	fb07 3c06 	mla	ip, r7, r6, r3
 8002e8e:	9c0d      	ldr	r4, [sp, #52]	; 0x34
 8002e90:	f8cd c0a8 	str.w	ip, [sp, #168]	; 0xa8
 8002e94:	462b      	mov	r3, r5
 8002e96:	fb0b f605 	mul.w	r6, fp, r5
 8002e9a:	fb00 f303 	mul.w	r3, r0, r3
 8002e9e:	980b      	ldr	r0, [sp, #44]	; 0x2c
 8002ea0:	fb04 6c01 	mla	ip, r4, r1, r6
 8002ea4:	f8cd c0ac 	str.w	ip, [sp, #172]	; 0xac
 8002ea8:	fb04 3c00 	mla	ip, r4, r0, r3
 8002eac:	9815      	ldr	r0, [sp, #84]	; 0x54
 8002eae:	f8cd c0a0 	str.w	ip, [sp, #160]	; 0xa0
 8002eb2:	4625      	mov	r5, r4
 8002eb4:	4616      	mov	r6, r2
 8002eb6:	fb02 f400 	mul.w	r4, r2, r0
 8002eba:	9a07      	ldr	r2, [sp, #28]
 8002ebc:	fb07 4c02 	mla	ip, r7, r2, r4
 8002ec0:	f8cd c0a4 	str.w	ip, [sp, #164]	; 0xa4
 8002ec4:	9a16      	ldr	r2, [sp, #88]	; 0x58
 8002ec6:	9b09      	ldr	r3, [sp, #36]	; 0x24
 8002ec8:	9c12      	ldr	r4, [sp, #72]	; 0x48
 8002eca:	fb03 f302 	mul.w	r3, r3, r2
 8002ece:	fb05 3c04 	mla	ip, r5, r4, r3
 8002ed2:	ac33      	add	r4, sp, #204	; 0xcc
 8002ed4:	fb0b f300 	mul.w	r3, fp, r0
 8002ed8:	941c      	str	r4, [sp, #112]	; 0x70
 8002eda:	9c06      	ldr	r4, [sp, #24]
 8002edc:	f8cd c0b4 	str.w	ip, [sp, #180]	; 0xb4
 8002ee0:	fb07 3101 	mla	r1, r7, r1, r3
 8002ee4:	9f19      	ldr	r7, [sp, #100]	; 0x64
 8002ee6:	912e      	str	r1, [sp, #184]	; 0xb8
 8002ee8:	fbab c404 	umull	ip, r4, fp, r4
 8002eec:	4427      	add	r7, r4
 8002eee:	9719      	str	r7, [sp, #100]	; 0x64
 8002ef0:	9f07      	ldr	r7, [sp, #28]
 8002ef2:	f8cd c068 	str.w	ip, [sp, #104]	; 0x68
 8002ef6:	fb0c fc07 	mul.w	ip, ip, r7
 8002efa:	9f19      	ldr	r7, [sp, #100]	; 0x64
 8002efc:	4bc0      	ldr	r3, [pc, #768]	; (8003200 <XPT2046_CalibrateTouch+0x890>)
 8002efe:	fb06 cc07 	mla	ip, r6, r7, ip
 8002f02:	e9dd 5709 	ldrd	r5, r7, [sp, #36]	; 0x24
 8002f06:	fbab 640b 	umull	r6, r4, fp, fp
 8002f0a:	fba5 7507 	umull	r7, r5, r5, r7
 8002f0e:	4475      	add	r5, lr
 8002f10:	ebb7 0e06 	subs.w	lr, r7, r6
 8002f14:	4676      	mov	r6, lr
 8002f16:	9f1b      	ldr	r7, [sp, #108]	; 0x6c
 8002f18:	f8cd e048 	str.w	lr, [sp, #72]	; 0x48
 8002f1c:	ea4f 0686 	mov.w	r6, r6, lsl #2
 8002f20:	961b      	str	r6, [sp, #108]	; 0x6c
 8002f22:	9e17      	ldr	r6, [sp, #92]	; 0x5c
 8002f24:	eb04 0447 	add.w	r4, r4, r7, lsl #1
 8002f28:	eb65 0504 	sbc.w	r5, r5, r4
 8002f2c:	fb0e f406 	mul.w	r4, lr, r6
 8002f30:	9e0e      	ldr	r6, [sp, #56]	; 0x38
 8002f32:	00af      	lsls	r7, r5, #2
 8002f34:	ea47 779e 	orr.w	r7, r7, lr, lsr #30
 8002f38:	fb06 4e05 	mla	lr, r6, r5, r4
 8002f3c:	9e18      	ldr	r6, [sp, #96]	; 0x60
 8002f3e:	9c12      	ldr	r4, [sp, #72]	; 0x48
 8002f40:	f8cd e09c 	str.w	lr, [sp, #156]	; 0x9c
 8002f44:	fb04 f406 	mul.w	r4, r4, r6
 8002f48:	9e11      	ldr	r6, [sp, #68]	; 0x44
 8002f4a:	fb06 4e05 	mla	lr, r6, r5, r4
 8002f4e:	9e1a      	ldr	r6, [sp, #104]	; 0x68
 8002f50:	9c05      	ldr	r4, [sp, #20]
 8002f52:	f8cd e0bc 	str.w	lr, [sp, #188]	; 0xbc
 8002f56:	fba6 4e04 	umull	r4, lr, r6, r4
 8002f5a:	44f4      	add	ip, lr
 8002f5c:	9e1b      	ldr	r6, [sp, #108]	; 0x6c
 8002f5e:	eb14 0e04 	adds.w	lr, r4, r4
 8002f62:	9c12      	ldr	r4, [sp, #72]	; 0x48
 8002f64:	eb4c 0c0c 	adc.w	ip, ip, ip
 8002f68:	1936      	adds	r6, r6, r4
 8002f6a:	eb45 0507 	adc.w	r5, r5, r7
 8002f6e:	eb1e 0406 	adds.w	r4, lr, r6
 8002f72:	eb4c 0605 	adc.w	r6, ip, r5
 8002f76:	9f05      	ldr	r7, [sp, #20]
 8002f78:	9d09      	ldr	r5, [sp, #36]	; 0x24
 8002f7a:	9630      	str	r6, [sp, #192]	; 0xc0
 8002f7c:	942c      	str	r4, [sp, #176]	; 0xb0
 8002f7e:	9c1d      	ldr	r4, [sp, #116]	; 0x74
 8002f80:	fba5 c507 	umull	ip, r5, r5, r7
 8002f84:	442c      	add	r4, r5
 8002f86:	9d07      	ldr	r5, [sp, #28]
 8002f88:	941d      	str	r4, [sp, #116]	; 0x74
 8002f8a:	4666      	mov	r6, ip
 8002f8c:	fb06 f505 	mul.w	r5, r6, r5
 8002f90:	fb07 5404 	mla	r4, r7, r4, r5
 8002f94:	941f      	str	r4, [sp, #124]	; 0x7c
 8002f96:	9f0a      	ldr	r7, [sp, #40]	; 0x28
 8002f98:	9c06      	ldr	r4, [sp, #24]
 8002f9a:	9e1e      	ldr	r6, [sp, #120]	; 0x78
 8002f9c:	f8cd c06c 	str.w	ip, [sp, #108]	; 0x6c
 8002fa0:	fba7 7e04 	umull	r7, lr, r7, r4
 8002fa4:	44b6      	add	lr, r6
 8002fa6:	9e0b      	ldr	r6, [sp, #44]	; 0x2c
 8002fa8:	9d2c      	ldr	r5, [sp, #176]	; 0xb0
 8002faa:	fb07 fc06 	mul.w	ip, r7, r6
 8002fae:	fb04 c40e 	mla	r4, r4, lr, ip
 8002fb2:	9e1b      	ldr	r6, [sp, #108]	; 0x6c
 8002fb4:	941e      	str	r4, [sp, #120]	; 0x78
 8002fb6:	9c05      	ldr	r4, [sp, #20]
 8002fb8:	fba6 c404 	umull	ip, r4, r6, r4
 8002fbc:	ebb5 050c 	subs.w	r5, r5, ip
 8002fc0:	952c      	str	r5, [sp, #176]	; 0xb0
 8002fc2:	9d1f      	ldr	r5, [sp, #124]	; 0x7c
 8002fc4:	9e30      	ldr	r6, [sp, #192]	; 0xc0
 8002fc6:	4425      	add	r5, r4
 8002fc8:	eb66 0605 	sbc.w	r6, r6, r5
 8002fcc:	9d06      	ldr	r5, [sp, #24]
 8002fce:	9c2c      	ldr	r4, [sp, #176]	; 0xb0
 8002fd0:	fba7 5c05 	umull	r5, ip, r7, r5
 8002fd4:	1b64      	subs	r4, r4, r5
 8002fd6:	941f      	str	r4, [sp, #124]	; 0x7c
 8002fd8:	9c1e      	ldr	r4, [sp, #120]	; 0x78
 8002fda:	4464      	add	r4, ip
 8002fdc:	eb66 0504 	sbc.w	r5, r6, r4
 8002fe0:	9c1f      	ldr	r4, [sp, #124]	; 0x7c
 8002fe2:	e9c9 4518 	strd	r4, r5, [r9, #96]	; 0x60
 8002fe6:	9c05      	ldr	r4, [sp, #20]
 8002fe8:	fbab 4504 	umull	r4, r5, fp, r4
 8002fec:	ebb4 0c07 	subs.w	ip, r4, r7
 8002ff0:	9f22      	ldr	r7, [sp, #136]	; 0x88
 8002ff2:	9c13      	ldr	r4, [sp, #76]	; 0x4c
 8002ff4:	443d      	add	r5, r7
 8002ff6:	eb65 0e0e 	sbc.w	lr, r5, lr
 8002ffa:	4666      	mov	r6, ip
 8002ffc:	9d08      	ldr	r5, [sp, #32]
 8002ffe:	fb06 f404 	mul.w	r4, r6, r4
 8003002:	4667      	mov	r7, ip
 8003004:	fb05 4c0e 	mla	ip, r5, lr, r4
 8003008:	9c15      	ldr	r4, [sp, #84]	; 0x54
 800300a:	f8cd c07c 	str.w	ip, [sp, #124]	; 0x7c
 800300e:	fb06 f404 	mul.w	r4, r6, r4
 8003012:	9e10      	ldr	r6, [sp, #64]	; 0x40
 8003014:	fb06 4c0e 	mla	ip, r6, lr, r4
 8003018:	9c17      	ldr	r4, [sp, #92]	; 0x5c
 800301a:	f8cd c0c0 	str.w	ip, [sp, #192]	; 0xc0
 800301e:	463e      	mov	r6, r7
 8003020:	fb07 f404 	mul.w	r4, r7, r4
 8003024:	9f0e      	ldr	r7, [sp, #56]	; 0x38
 8003026:	9613      	str	r6, [sp, #76]	; 0x4c
 8003028:	fb07 4c0e 	mla	ip, r7, lr, r4
 800302c:	9c18      	ldr	r4, [sp, #96]	; 0x60
 800302e:	f8cd c078 	str.w	ip, [sp, #120]	; 0x78
 8003032:	fb06 f404 	mul.w	r4, r6, r4
 8003036:	9e11      	ldr	r6, [sp, #68]	; 0x44
 8003038:	fb06 4c0e 	mla	ip, r6, lr, r4
 800303c:	9e0a      	ldr	r6, [sp, #40]	; 0x28
 800303e:	9c23      	ldr	r4, [sp, #140]	; 0x8c
 8003040:	f8cd c0b0 	str.w	ip, [sp, #176]	; 0xb0
 8003044:	fba6 7505 	umull	r7, r5, r6, r5
 8003048:	4425      	add	r5, r4
 800304a:	9c10      	ldr	r4, [sp, #64]	; 0x40
 800304c:	fba6 c404 	umull	ip, r4, r6, r4
 8003050:	9e2a      	ldr	r6, [sp, #168]	; 0xa8
 8003052:	f8cd c0c4 	str.w	ip, [sp, #196]	; 0xc4
 8003056:	4426      	add	r6, r4
 8003058:	9622      	str	r6, [sp, #136]	; 0x88
 800305a:	9e0c      	ldr	r6, [sp, #48]	; 0x30
 800305c:	fbab 4606 	umull	r4, r6, fp, r6
 8003060:	1b3c      	subs	r4, r7, r4
 8003062:	9f24      	ldr	r7, [sp, #144]	; 0x90
 8003064:	443e      	add	r6, r7
 8003066:	eb65 0506 	sbc.w	r5, r5, r6
 800306a:	00ae      	lsls	r6, r5, #2
 800306c:	00a7      	lsls	r7, r4, #2
 800306e:	193f      	adds	r7, r7, r4
 8003070:	ea46 7694 	orr.w	r6, r6, r4, lsr #30
 8003074:	eb45 0506 	adc.w	r5, r5, r6
 8003078:	9c0c      	ldr	r4, [sp, #48]	; 0x30
 800307a:	9e06      	ldr	r6, [sp, #24]
 800307c:	9723      	str	r7, [sp, #140]	; 0x8c
 800307e:	fba6 c404 	umull	ip, r4, r6, r4
 8003082:	9e20      	ldr	r6, [sp, #128]	; 0x80
 8003084:	f8cd c080 	str.w	ip, [sp, #128]	; 0x80
 8003088:	1934      	adds	r4, r6, r4
 800308a:	940a      	str	r4, [sp, #40]	; 0x28
 800308c:	9e08      	ldr	r6, [sp, #32]
 800308e:	9c05      	ldr	r4, [sp, #20]
 8003090:	9f0a      	ldr	r7, [sp, #40]	; 0x28
 8003092:	fba4 e406 	umull	lr, r4, r4, r6
 8003096:	9e21      	ldr	r6, [sp, #132]	; 0x84
 8003098:	1934      	adds	r4, r6, r4
 800309a:	4626      	mov	r6, r4
 800309c:	ebbc 040e 	subs.w	r4, ip, lr
 80030a0:	eb67 0c06 	sbc.w	ip, r7, r6
 80030a4:	9f07      	ldr	r7, [sp, #28]
 80030a6:	9615      	str	r6, [sp, #84]	; 0x54
 80030a8:	fb04 f607 	mul.w	r6, r4, r7
 80030ac:	9f05      	ldr	r7, [sp, #20]
 80030ae:	fb07 660c 	mla	r6, r7, ip, r6
 80030b2:	fba4 4c07 	umull	r4, ip, r4, r7
 80030b6:	9f23      	ldr	r7, [sp, #140]	; 0x8c
 80030b8:	4466      	add	r6, ip
 80030ba:	193c      	adds	r4, r7, r4
 80030bc:	eb46 0505 	adc.w	r5, r6, r5
 80030c0:	9f0e      	ldr	r7, [sp, #56]	; 0x38
 80030c2:	9e13      	ldr	r6, [sp, #76]	; 0x4c
 80030c4:	fba6 6707 	umull	r6, r7, r6, r7
 80030c8:	19a6      	adds	r6, r4, r6
 80030ca:	9c1e      	ldr	r4, [sp, #120]	; 0x78
 80030cc:	4427      	add	r7, r4
 80030ce:	eb47 0c05 	adc.w	ip, r7, r5
 80030d2:	e9dd 741a 	ldrd	r7, r4, [sp, #104]	; 0x68
 80030d6:	e9c9 6c0c 	strd	r6, ip, [r9, #48]	; 0x30
 80030da:	1b3c      	subs	r4, r7, r4
 80030dc:	9e17      	ldr	r6, [sp, #92]	; 0x5c
 80030de:	9f19      	ldr	r7, [sp, #100]	; 0x64
 80030e0:	9d1d      	ldr	r5, [sp, #116]	; 0x74
 80030e2:	eb67 0705 	sbc.w	r7, r7, r5
 80030e6:	fb04 f506 	mul.w	r5, r4, r6
 80030ea:	9e0e      	ldr	r6, [sp, #56]	; 0x38
 80030ec:	fb06 5c07 	mla	ip, r6, r7, r5
 80030f0:	9d14      	ldr	r5, [sp, #80]	; 0x50
 80030f2:	f8cd c05c 	str.w	ip, [sp, #92]	; 0x5c
 80030f6:	fb04 f605 	mul.w	r6, r4, r5
 80030fa:	9d0c      	ldr	r5, [sp, #48]	; 0x30
 80030fc:	fb05 6607 	mla	r6, r5, r7, r6
 8003100:	9614      	str	r6, [sp, #80]	; 0x50
 8003102:	9e18      	ldr	r6, [sp, #96]	; 0x60
 8003104:	fb04 f506 	mul.w	r5, r4, r6
 8003108:	9e11      	ldr	r6, [sp, #68]	; 0x44
 800310a:	fb06 5c07 	mla	ip, r6, r7, r5
 800310e:	9d16      	ldr	r5, [sp, #88]	; 0x58
 8003110:	9e0d      	ldr	r6, [sp, #52]	; 0x34
 8003112:	f8cd c060 	str.w	ip, [sp, #96]	; 0x60
 8003116:	fb04 f505 	mul.w	r5, r4, r5
 800311a:	fb06 5c07 	mla	ip, r6, r7, r5
 800311e:	9e0c      	ldr	r6, [sp, #48]	; 0x30
 8003120:	9d09      	ldr	r5, [sp, #36]	; 0x24
 8003122:	9f25      	ldr	r7, [sp, #148]	; 0x94
 8003124:	f8cd c064 	str.w	ip, [sp, #100]	; 0x64
 8003128:	fba5 c506 	umull	ip, r5, r5, r6
 800312c:	442f      	add	r7, r5
 800312e:	970c      	str	r7, [sp, #48]	; 0x30
 8003130:	fba4 7506 	umull	r7, r5, r4, r6
 8003134:	9e14      	ldr	r6, [sp, #80]	; 0x50
 8003136:	971a      	str	r7, [sp, #104]	; 0x68
 8003138:	442e      	add	r6, r5
 800313a:	9614      	str	r6, [sp, #80]	; 0x50
 800313c:	9d09      	ldr	r5, [sp, #36]	; 0x24
 800313e:	9e0d      	ldr	r6, [sp, #52]	; 0x34
 8003140:	fba5 7506 	umull	r7, r5, r5, r6
 8003144:	971b      	str	r7, [sp, #108]	; 0x6c
 8003146:	9f2d      	ldr	r7, [sp, #180]	; 0xb4
 8003148:	197d      	adds	r5, r7, r5
 800314a:	9516      	str	r5, [sp, #88]	; 0x58
 800314c:	9d08      	ldr	r5, [sp, #32]
 800314e:	9f26      	ldr	r7, [sp, #152]	; 0x98
 8003150:	fbab 6505 	umull	r6, r5, fp, r5
 8003154:	443d      	add	r5, r7
 8003156:	9f0c      	ldr	r7, [sp, #48]	; 0x30
 8003158:	ebbc 0606 	subs.w	r6, ip, r6
 800315c:	eb67 0505 	sbc.w	r5, r7, r5
 8003160:	00af      	lsls	r7, r5, #2
 8003162:	ea4f 0c86 	mov.w	ip, r6, lsl #2
 8003166:	ea47 7796 	orr.w	r7, r7, r6, lsr #30
 800316a:	eb1c 0606 	adds.w	r6, ip, r6
 800316e:	eb45 0507 	adc.w	r5, r5, r7
 8003172:	950c      	str	r5, [sp, #48]	; 0x30
 8003174:	9d20      	ldr	r5, [sp, #128]	; 0x80
 8003176:	ebbe 0705 	subs.w	r7, lr, r5
 800317a:	9709      	str	r7, [sp, #36]	; 0x24
 800317c:	9d0a      	ldr	r5, [sp, #40]	; 0x28
 800317e:	9f15      	ldr	r7, [sp, #84]	; 0x54
 8003180:	eb67 0c05 	sbc.w	ip, r7, r5
 8003184:	9f09      	ldr	r7, [sp, #36]	; 0x24
 8003186:	9d0b      	ldr	r5, [sp, #44]	; 0x2c
 8003188:	fb07 fe05 	mul.w	lr, r7, r5
 800318c:	9f06      	ldr	r7, [sp, #24]
 800318e:	fb07 ec0c 	mla	ip, r7, ip, lr
 8003192:	463d      	mov	r5, r7
 8003194:	9f09      	ldr	r7, [sp, #36]	; 0x24
 8003196:	fba7 e705 	umull	lr, r7, r7, r5
 800319a:	9d0c      	ldr	r5, [sp, #48]	; 0x30
 800319c:	eb16 060e 	adds.w	r6, r6, lr
 80031a0:	4467      	add	r7, ip
 80031a2:	9609      	str	r6, [sp, #36]	; 0x24
 80031a4:	eb47 0705 	adc.w	r7, r7, r5
 80031a8:	9e13      	ldr	r6, [sp, #76]	; 0x4c
 80031aa:	9d08      	ldr	r5, [sp, #32]
 80031ac:	fba6 e505 	umull	lr, r5, r6, r5
 80031b0:	9e1f      	ldr	r6, [sp, #124]	; 0x7c
 80031b2:	4435      	add	r5, r6
 80031b4:	9e0e      	ldr	r6, [sp, #56]	; 0x38
 80031b6:	9508      	str	r5, [sp, #32]
 80031b8:	fba4 5c06 	umull	r5, ip, r4, r6
 80031bc:	9e09      	ldr	r6, [sp, #36]	; 0x24
 80031be:	1976      	adds	r6, r6, r5
 80031c0:	9d17      	ldr	r5, [sp, #92]	; 0x5c
 80031c2:	44ac      	add	ip, r5
 80031c4:	eb4c 0707 	adc.w	r7, ip, r7
 80031c8:	e9c9 670e 	strd	r6, r7, [r9, #56]	; 0x38
 80031cc:	9f0e      	ldr	r7, [sp, #56]	; 0x38
 80031ce:	9e12      	ldr	r6, [sp, #72]	; 0x48
 80031d0:	9d08      	ldr	r5, [sp, #32]
 80031d2:	fba6 6707 	umull	r6, r7, r6, r7
 80031d6:	eb16 0c0e 	adds.w	ip, r6, lr
 80031da:	9e27      	ldr	r6, [sp, #156]	; 0x9c
 80031dc:	4437      	add	r7, r6
 80031de:	eb47 0705 	adc.w	r7, r7, r5
 80031e2:	9d1a      	ldr	r5, [sp, #104]	; 0x68
 80031e4:	eb1c 0605 	adds.w	r6, ip, r5
 80031e8:	9d14      	ldr	r5, [sp, #80]	; 0x50
 80031ea:	eb45 0707 	adc.w	r7, r5, r7
 80031ee:	e9c9 6710 	strd	r6, r7, [r9, #64]	; 0x40
 80031f2:	e9dd 5611 	ldrd	r5, r6, [sp, #68]	; 0x44
 80031f6:	9f2f      	ldr	r7, [sp, #188]	; 0xbc
 80031f8:	fba6 c505 	umull	ip, r5, r6, r5
 80031fc:	e002      	b.n	8003204 <XPT2046_CalibrateTouch+0x894>
 80031fe:	bf00      	nop
 8003200:	08005e58 	.word	0x08005e58
 8003204:	197d      	adds	r5, r7, r5
 8003206:	f8cd c05c 	str.w	ip, [sp, #92]	; 0x5c
 800320a:	950e      	str	r5, [sp, #56]	; 0x38
 800320c:	9d0d      	ldr	r5, [sp, #52]	; 0x34
 800320e:	9f31      	ldr	r7, [sp, #196]	; 0xc4
 8003210:	fbab 5605 	umull	r5, r6, fp, r5
 8003214:	1b7d      	subs	r5, r7, r5
 8003216:	9f2b      	ldr	r7, [sp, #172]	; 0xac
 8003218:	443e      	add	r6, r7
 800321a:	9f22      	ldr	r7, [sp, #136]	; 0x88
 800321c:	eb67 0606 	sbc.w	r6, r7, r6
 8003220:	00b7      	lsls	r7, r6, #2
 8003222:	ea4f 0c85 	mov.w	ip, r5, lsl #2
 8003226:	eb1c 0c05 	adds.w	ip, ip, r5
 800322a:	ea47 7795 	orr.w	r7, r7, r5, lsr #30
 800322e:	eb46 0707 	adc.w	r7, r6, r7
 8003232:	9714      	str	r7, [sp, #80]	; 0x50
 8003234:	9f10      	ldr	r7, [sp, #64]	; 0x40
 8003236:	9d2e      	ldr	r5, [sp, #184]	; 0xb8
 8003238:	9e06      	ldr	r6, [sp, #24]
 800323a:	f8cd c048 	str.w	ip, [sp, #72]	; 0x48
 800323e:	fbab eb07 	umull	lr, fp, fp, r7
 8003242:	eb05 0c0b 	add.w	ip, r5, fp
 8003246:	9d0d      	ldr	r5, [sp, #52]	; 0x34
 8003248:	f8cd c028 	str.w	ip, [sp, #40]	; 0x28
 800324c:	fba6 b505 	umull	fp, r5, r6, r5
 8003250:	9e28      	ldr	r6, [sp, #160]	; 0xa0
 8003252:	442e      	add	r6, r5
 8003254:	9d0d      	ldr	r5, [sp, #52]	; 0x34
 8003256:	9608      	str	r6, [sp, #32]
 8003258:	9e19      	ldr	r6, [sp, #100]	; 0x64
 800325a:	fba4 c505 	umull	ip, r5, r4, r5
 800325e:	1975      	adds	r5, r6, r5
 8003260:	9e11      	ldr	r6, [sp, #68]	; 0x44
 8003262:	9510      	str	r5, [sp, #64]	; 0x40
 8003264:	9d18      	ldr	r5, [sp, #96]	; 0x60
 8003266:	f8cd c068 	str.w	ip, [sp, #104]	; 0x68
 800326a:	fba4 c406 	umull	ip, r4, r4, r6
 800326e:	192c      	adds	r4, r5, r4
 8003270:	9d13      	ldr	r5, [sp, #76]	; 0x4c
 8003272:	940c      	str	r4, [sp, #48]	; 0x30
 8003274:	9c2c      	ldr	r4, [sp, #176]	; 0xb0
 8003276:	f8cd c054 	str.w	ip, [sp, #84]	; 0x54
 800327a:	fba5 c606 	umull	ip, r6, r5, r6
 800327e:	4426      	add	r6, r4
 8003280:	9609      	str	r6, [sp, #36]	; 0x24
 8003282:	462e      	mov	r6, r5
 8003284:	f8cd c044 	str.w	ip, [sp, #68]	; 0x44
 8003288:	fba6 c407 	umull	ip, r4, r6, r7
 800328c:	9e30      	ldr	r6, [sp, #192]	; 0xc0
 800328e:	f8cd c04c 	str.w	ip, [sp, #76]	; 0x4c
 8003292:	1934      	adds	r4, r6, r4
 8003294:	940d      	str	r4, [sp, #52]	; 0x34
 8003296:	9c05      	ldr	r4, [sp, #20]
 8003298:	9e29      	ldr	r6, [sp, #164]	; 0xa4
 800329a:	fba4 c407 	umull	ip, r4, r4, r7
 800329e:	ebbb 050c 	subs.w	r5, fp, ip
 80032a2:	4434      	add	r4, r6
 80032a4:	462e      	mov	r6, r5
 80032a6:	9d07      	ldr	r5, [sp, #28]
 80032a8:	9607      	str	r6, [sp, #28]
 80032aa:	fb06 f505 	mul.w	r5, r6, r5
 80032ae:	9e08      	ldr	r6, [sp, #32]
 80032b0:	eb66 0704 	sbc.w	r7, r6, r4
 80032b4:	9e05      	ldr	r6, [sp, #20]
 80032b6:	fb06 5507 	mla	r5, r6, r7, r5
 80032ba:	9f07      	ldr	r7, [sp, #28]
 80032bc:	fba7 7606 	umull	r7, r6, r7, r6
 80032c0:	9605      	str	r6, [sp, #20]
 80032c2:	9e12      	ldr	r6, [sp, #72]	; 0x48
 80032c4:	19f7      	adds	r7, r6, r7
 80032c6:	9e05      	ldr	r6, [sp, #20]
 80032c8:	4435      	add	r5, r6
 80032ca:	9e14      	ldr	r6, [sp, #80]	; 0x50
 80032cc:	eb45 0506 	adc.w	r5, r5, r6
 80032d0:	9e11      	ldr	r6, [sp, #68]	; 0x44
 80032d2:	19be      	adds	r6, r7, r6
 80032d4:	9605      	str	r6, [sp, #20]
 80032d6:	9f1b      	ldr	r7, [sp, #108]	; 0x6c
 80032d8:	9e09      	ldr	r6, [sp, #36]	; 0x24
 80032da:	eb46 0505 	adc.w	r5, r6, r5
 80032de:	ebb7 0e0e 	subs.w	lr, r7, lr
 80032e2:	9e0a      	ldr	r6, [sp, #40]	; 0x28
 80032e4:	9f16      	ldr	r7, [sp, #88]	; 0x58
 80032e6:	eb67 0706 	sbc.w	r7, r7, r6
 80032ea:	9e05      	ldr	r6, [sp, #20]
 80032ec:	e9c9 6512 	strd	r6, r5, [r9, #72]	; 0x48
 80032f0:	00be      	lsls	r6, r7, #2
 80032f2:	ea4f 058e 	mov.w	r5, lr, lsl #2
 80032f6:	ea46 769e 	orr.w	r6, r6, lr, lsr #30
 80032fa:	eb15 0e0e 	adds.w	lr, r5, lr
 80032fe:	eb47 0606 	adc.w	r6, r7, r6
 8003302:	9d0b      	ldr	r5, [sp, #44]	; 0x2c
 8003304:	9f08      	ldr	r7, [sp, #32]
 8003306:	ebbc 0c0b 	subs.w	ip, ip, fp
 800330a:	eb64 0407 	sbc.w	r4, r4, r7
 800330e:	fb0c f705 	mul.w	r7, ip, r5
 8003312:	9d06      	ldr	r5, [sp, #24]
 8003314:	fb05 7404 	mla	r4, r5, r4, r7
 8003318:	fbac c705 	umull	ip, r7, ip, r5
 800331c:	443c      	add	r4, r7
 800331e:	9f15      	ldr	r7, [sp, #84]	; 0x54
 8003320:	eb1e 050c 	adds.w	r5, lr, ip
 8003324:	eb44 0406 	adc.w	r4, r4, r6
 8003328:	eb15 0c07 	adds.w	ip, r5, r7
 800332c:	9f0c      	ldr	r7, [sp, #48]	; 0x30
 800332e:	9e17      	ldr	r6, [sp, #92]	; 0x5c
 8003330:	eb47 0404 	adc.w	r4, r7, r4
 8003334:	9f13      	ldr	r7, [sp, #76]	; 0x4c
 8003336:	19f7      	adds	r7, r6, r7
 8003338:	e9dd 560d 	ldrd	r5, r6, [sp, #52]	; 0x34
 800333c:	eb46 0605 	adc.w	r6, r6, r5
 8003340:	9d1a      	ldr	r5, [sp, #104]	; 0x68
 8003342:	197f      	adds	r7, r7, r5
 8003344:	9d10      	ldr	r5, [sp, #64]	; 0x40
 8003346:	eb45 0606 	adc.w	r6, r5, r6
 800334a:	25ff      	movs	r5, #255	; 0xff
 800334c:	e9c9 c414 	strd	ip, r4, [r9, #80]	; 0x50
 8003350:	e9c9 7616 	strd	r7, r6, [r9, #88]	; 0x58
 8003354:	9501      	str	r5, [sp, #4]
 8003356:	f06f 457f 	mvn.w	r5, #4278190080	; 0xff000000
 800335a:	f8cd a00c 	str.w	sl, [sp, #12]
 800335e:	9502      	str	r5, [sp, #8]
 8003360:	4d7f      	ldr	r5, [pc, #508]	; (8003560 <XPT2046_CalibrateTouch+0xbf0>)
 8003362:	9500      	str	r5, [sp, #0]
 8003364:	4652      	mov	r2, sl
 8003366:	4651      	mov	r1, sl
 8003368:	4640      	mov	r0, r8
 800336a:	f7fe ffb3 	bl	80022d4 <LCD_WriteString>
 800336e:	f44f 607a 	mov.w	r0, #4000	; 0xfa0
 8003372:	f7ff fa91 	bl	8002898 <LL_mDelay>
 8003376:	f06f 417f 	mvn.w	r1, #4278190080	; 0xff000000
 800337a:	4640      	mov	r0, r8
 800337c:	f7fe f916 	bl	80015ac <LCD_Fill>
 8003380:	f8dd b070 	ldr.w	fp, [sp, #112]	; 0x70
 8003384:	f8cd a014 	str.w	sl, [sp, #20]
 8003388:	2300      	movs	r3, #0
 800338a:	9300      	str	r3, [sp, #0]
 800338c:	f9bb 7000 	ldrsh.w	r7, [fp]
 8003390:	f9bb 5002 	ldrsh.w	r5, [fp, #2]
 8003394:	f8bb 6002 	ldrh.w	r6, [fp, #2]
 8003398:	f8bb 4000 	ldrh.w	r4, [fp]
 800339c:	462a      	mov	r2, r5
 800339e:	4639      	mov	r1, r7
 80033a0:	4640      	mov	r0, r8
 80033a2:	2305      	movs	r3, #5
 80033a4:	f7fe fbf8 	bl	8001b98 <LCD_DrawCircle>
 80033a8:	f44f 037f 	mov.w	r3, #16711680	; 0xff0000
 80033ac:	9301      	str	r3, [sp, #4]
 80033ae:	1d73      	adds	r3, r6, #5
 80033b0:	930a      	str	r3, [sp, #40]	; 0x28
 80033b2:	1f72      	subs	r2, r6, #5
 80033b4:	b21b      	sxth	r3, r3
 80033b6:	9209      	str	r2, [sp, #36]	; 0x24
 80033b8:	9300      	str	r3, [sp, #0]
 80033ba:	4639      	mov	r1, r7
 80033bc:	463b      	mov	r3, r7
 80033be:	4640      	mov	r0, r8
 80033c0:	b212      	sxth	r2, r2
 80033c2:	f7fe f915 	bl	80015f0 <LCD_DrawLine>
 80033c6:	f44f 037f 	mov.w	r3, #16711680	; 0xff0000
 80033ca:	1f61      	subs	r1, r4, #5
 80033cc:	e9cd 5300 	strd	r5, r3, [sp]
 80033d0:	1d63      	adds	r3, r4, #5
 80033d2:	9308      	str	r3, [sp, #32]
 80033d4:	9107      	str	r1, [sp, #28]
 80033d6:	462a      	mov	r2, r5
 80033d8:	b21b      	sxth	r3, r3
 80033da:	b209      	sxth	r1, r1
 80033dc:	4640      	mov	r0, r8
 80033de:	f7fe f907 	bl	80015f0 <LCD_DrawLine>
 80033e2:	e000      	b.n	80033e6 <XPT2046_CalibrateTouch+0xa76>
 80033e4:	bf00      	nop
 80033e6:	f899 3029 	ldrb.w	r3, [r9, #41]	; 0x29
 80033ea:	2b00      	cmp	r3, #0
 80033ec:	d0fa      	beq.n	80033e4 <XPT2046_CalibrateTouch+0xa74>
 80033ee:	4648      	mov	r0, r9
 80033f0:	f000 fcc8 	bl	8003d84 <XPT2046_GetTouch>
 80033f4:	f899 3029 	ldrb.w	r3, [r9, #41]	; 0x29
 80033f8:	2b00      	cmp	r3, #0
 80033fa:	d1f8      	bne.n	80033ee <XPT2046_CalibrateTouch+0xa7e>
 80033fc:	f8d9 3020 	ldr.w	r3, [r9, #32]
 8003400:	2b03      	cmp	r3, #3
 8003402:	d9ef      	bls.n	80033e4 <XPT2046_CalibrateTouch+0xa74>
 8003404:	e9d9 4506 	ldrd	r4, r5, [r9, #24]
 8003408:	f8d9 3034 	ldr.w	r3, [r9, #52]	; 0x34
 800340c:	f8d9 1030 	ldr.w	r1, [r9, #48]	; 0x30
 8003410:	fb04 f003 	mul.w	r0, r4, r3
 8003414:	f8d9 303c 	ldr.w	r3, [r9, #60]	; 0x3c
 8003418:	17e6      	asrs	r6, r4, #31
 800341a:	fb05 f203 	mul.w	r2, r5, r3
 800341e:	f8d9 3038 	ldr.w	r3, [r9, #56]	; 0x38
 8003422:	9606      	str	r6, [sp, #24]
 8003424:	fb06 0001 	mla	r0, r6, r1, r0
 8003428:	ea4f 7ae5 	mov.w	sl, r5, asr #31
 800342c:	fba1 6104 	umull	r6, r1, r1, r4
 8003430:	fb0a 2203 	mla	r2, sl, r3, r2
 8003434:	4401      	add	r1, r0
 8003436:	fba3 3005 	umull	r3, r0, r3, r5
 800343a:	18f3      	adds	r3, r6, r3
 800343c:	4402      	add	r2, r0
 800343e:	e9d9 6718 	ldrd	r6, r7, [r9, #96]	; 0x60
 8003442:	f8d9 0040 	ldr.w	r0, [r9, #64]	; 0x40
 8003446:	eb41 0202 	adc.w	r2, r1, r2
 800344a:	f8d9 1044 	ldr.w	r1, [r9, #68]	; 0x44
 800344e:	1818      	adds	r0, r3, r0
 8003450:	eb42 0101 	adc.w	r1, r2, r1
 8003454:	463b      	mov	r3, r7
 8003456:	4632      	mov	r2, r6
 8003458:	f7fc ff1a 	bl	8000290 <__aeabi_ldivmod>
 800345c:	4632      	mov	r2, r6
 800345e:	f8d9 6054 	ldr.w	r6, [r9, #84]	; 0x54
 8003462:	f8d9 104c 	ldr.w	r1, [r9, #76]	; 0x4c
 8003466:	903a      	str	r0, [sp, #232]	; 0xe8
 8003468:	fb05 fc06 	mul.w	ip, r5, r6
 800346c:	463b      	mov	r3, r7
 800346e:	9e06      	ldr	r6, [sp, #24]
 8003470:	4607      	mov	r7, r0
 8003472:	f8d9 0048 	ldr.w	r0, [r9, #72]	; 0x48
 8003476:	fb04 f101 	mul.w	r1, r4, r1
 800347a:	fb06 1100 	mla	r1, r6, r0, r1
 800347e:	fba0 4004 	umull	r4, r0, r0, r4
 8003482:	4401      	add	r1, r0
 8003484:	f8d9 0050 	ldr.w	r0, [r9, #80]	; 0x50
 8003488:	fb0a ca00 	mla	sl, sl, r0, ip
 800348c:	fba0 0505 	umull	r0, r5, r0, r5
 8003490:	1820      	adds	r0, r4, r0
 8003492:	4455      	add	r5, sl
 8003494:	f8d9 4058 	ldr.w	r4, [r9, #88]	; 0x58
 8003498:	eb41 0505 	adc.w	r5, r1, r5
 800349c:	f8d9 105c 	ldr.w	r1, [r9, #92]	; 0x5c
 80034a0:	1900      	adds	r0, r0, r4
 80034a2:	eb45 0101 	adc.w	r1, r5, r1
 80034a6:	f7fc fef3 	bl	8000290 <__aeabi_ldivmod>
 80034aa:	9b07      	ldr	r3, [sp, #28]
 80034ac:	903b      	str	r0, [sp, #236]	; 0xec
 80034ae:	42bb      	cmp	r3, r7
 80034b0:	dc35      	bgt.n	800351e <XPT2046_CalibrateTouch+0xbae>
 80034b2:	9b08      	ldr	r3, [sp, #32]
 80034b4:	42bb      	cmp	r3, r7
 80034b6:	db32      	blt.n	800351e <XPT2046_CalibrateTouch+0xbae>
 80034b8:	9b09      	ldr	r3, [sp, #36]	; 0x24
 80034ba:	4283      	cmp	r3, r0
 80034bc:	dc2f      	bgt.n	800351e <XPT2046_CalibrateTouch+0xbae>
 80034be:	9b05      	ldr	r3, [sp, #20]
 80034c0:	9a0a      	ldr	r2, [sp, #40]	; 0x28
 80034c2:	4282      	cmp	r2, r0
 80034c4:	bfb8      	it	lt
 80034c6:	2301      	movlt	r3, #1
 80034c8:	9305      	str	r3, [sp, #20]
 80034ca:	f06f 417f 	mvn.w	r1, #4278190080	; 0xff000000
 80034ce:	4640      	mov	r0, r8
 80034d0:	f7fe f86c 	bl	80015ac <LCD_Fill>
 80034d4:	f240 5014 	movw	r0, #1300	; 0x514
 80034d8:	f7ff f9de 	bl	8002898 <LL_mDelay>
 80034dc:	f10b 0b04 	add.w	fp, fp, #4
 80034e0:	ab35      	add	r3, sp, #212	; 0xd4
 80034e2:	459b      	cmp	fp, r3
 80034e4:	f47f af50 	bne.w	8003388 <XPT2046_CalibrateTouch+0xa18>
 80034e8:	f8dd a014 	ldr.w	sl, [sp, #20]
 80034ec:	f1ba 0f00 	cmp.w	sl, #0
 80034f0:	d018      	beq.n	8003524 <XPT2046_CalibrateTouch+0xbb4>
 80034f2:	f06f 427f 	mvn.w	r2, #4278190080	; 0xff000000
 80034f6:	2100      	movs	r1, #0
 80034f8:	e9cd 2102 	strd	r2, r1, [sp, #8]
 80034fc:	4a18      	ldr	r2, [pc, #96]	; (8003560 <XPT2046_CalibrateTouch+0xbf0>)
 80034fe:	9200      	str	r2, [sp, #0]
 8003500:	f44f 037f 	mov.w	r3, #16711680	; 0xff0000
 8003504:	2200      	movs	r2, #0
 8003506:	9301      	str	r3, [sp, #4]
 8003508:	4640      	mov	r0, r8
 800350a:	4b16      	ldr	r3, [pc, #88]	; (8003564 <XPT2046_CalibrateTouch+0xbf4>)
 800350c:	4611      	mov	r1, r2
 800350e:	f7fe fee1 	bl	80022d4 <LCD_WriteString>
 8003512:	f44f 60fa 	mov.w	r0, #2000	; 0x7d0
 8003516:	f7ff f9bf 	bl	8002898 <LL_mDelay>
 800351a:	f7ff ba5d 	b.w	80029d8 <XPT2046_CalibrateTouch+0x68>
 800351e:	2301      	movs	r3, #1
 8003520:	9305      	str	r3, [sp, #20]
 8003522:	e7d2      	b.n	80034ca <XPT2046_CalibrateTouch+0xb5a>
 8003524:	f06f 447f 	mvn.w	r4, #4278190080	; 0xff000000
 8003528:	4a0d      	ldr	r2, [pc, #52]	; (8003560 <XPT2046_CalibrateTouch+0xbf0>)
 800352a:	9200      	str	r2, [sp, #0]
 800352c:	23ff      	movs	r3, #255	; 0xff
 800352e:	4651      	mov	r1, sl
 8003530:	ee18 0a10 	vmov	r0, s16
 8003534:	9301      	str	r3, [sp, #4]
 8003536:	4652      	mov	r2, sl
 8003538:	4b0b      	ldr	r3, [pc, #44]	; (8003568 <XPT2046_CalibrateTouch+0xbf8>)
 800353a:	e9cd 4a02 	strd	r4, sl, [sp, #8]
 800353e:	f7fe fec9 	bl	80022d4 <LCD_WriteString>
 8003542:	f44f 60fa 	mov.w	r0, #2000	; 0x7d0
 8003546:	f7ff f9a7 	bl	8002898 <LL_mDelay>
 800354a:	ee18 0a10 	vmov	r0, s16
 800354e:	4621      	mov	r1, r4
 8003550:	b04f      	add	sp, #316	; 0x13c
 8003552:	ecbd 8b02 	vpop	{d8}
 8003556:	e8bd 4ff0 	ldmia.w	sp!, {r4, r5, r6, r7, r8, r9, sl, fp, lr}
 800355a:	f7fe b827 	b.w	80015ac <LCD_Fill>
 800355e:	bf00      	nop
 8003560:	20000004 	.word	0x20000004
 8003564:	08005ee0 	.word	0x08005ee0
 8003568:	08005ed0 	.word	0x08005ed0

0800356c <Draw_TouchPenDemo>:
 800356c:	e92d 4ff0 	stmdb	sp!, {r4, r5, r6, r7, r8, r9, sl, fp, lr}
 8003570:	ed2d 8b02 	vpush	{d8}
 8003574:	2301      	movs	r3, #1
 8003576:	b0ad      	sub	sp, #180	; 0xb4
 8003578:	4f86      	ldr	r7, [pc, #536]	; (8003794 <Draw_TouchPenDemo+0x228>)
 800357a:	f880 3028 	strb.w	r3, [r0, #40]	; 0x28
 800357e:	2308      	movs	r3, #8
 8003580:	460d      	mov	r5, r1
 8003582:	4604      	mov	r4, r0
 8003584:	9305      	str	r3, [sp, #20]
 8003586:	cf0f      	ldmia	r7!, {r0, r1, r2, r3}
 8003588:	ae0b      	add	r6, sp, #44	; 0x2c
 800358a:	c60f      	stmia	r6!, {r0, r1, r2, r3}
 800358c:	e897 000f 	ldmia.w	r7, {r0, r1, r2, r3}
 8003590:	e886 000f 	stmia.w	r6, {r0, r1, r2, r3}
 8003594:	4628      	mov	r0, r5
 8003596:	f7fd fefb 	bl	8001390 <LCD_GetHeight>
 800359a:	f06f 417f 	mvn.w	r1, #4278190080	; 0xff000000
 800359e:	f3c0 0bcf 	ubfx	fp, r0, #3, #16
 80035a2:	4628      	mov	r0, r5
 80035a4:	f7fe f802 	bl	80015ac <LCD_Fill>
 80035a8:	f1ab 0302 	sub.w	r3, fp, #2
 80035ac:	b21a      	sxth	r2, r3
 80035ae:	f04f 0900 	mov.w	r9, #0
 80035b2:	f1ab 0a04 	sub.w	sl, fp, #4
 80035b6:	ee08 2a10 	vmov	s16, r2
 80035ba:	9f05      	ldr	r7, [sp, #20]
 80035bc:	9406      	str	r4, [sp, #24]
 80035be:	46c8      	mov	r8, r9
 80035c0:	fa0f fa8a 	sxth.w	sl, sl
 80035c4:	fa1f f688 	uxth.w	r6, r8
 80035c8:	eb0b 0406 	add.w	r4, fp, r6
 80035cc:	b2a4      	uxth	r4, r4
 80035ce:	1ea3      	subs	r3, r4, #2
 80035d0:	b21b      	sxth	r3, r3
 80035d2:	2200      	movs	r2, #0
 80035d4:	e9cd 3200 	strd	r3, r2, [sp]
 80035d8:	2100      	movs	r1, #0
 80035da:	fa0f f288 	sxth.w	r2, r8
 80035de:	ee18 3a10 	vmov	r3, s16
 80035e2:	4628      	mov	r0, r5
 80035e4:	f7fe f8b6 	bl	8001754 <LCD_DrawRectangle>
 80035e8:	ab2c      	add	r3, sp, #176	; 0xb0
 80035ea:	eb03 0389 	add.w	r3, r3, r9, lsl #2
 80035ee:	3c04      	subs	r4, #4
 80035f0:	f853 3c84 	ldr.w	r3, [r3, #-132]
 80035f4:	b224      	sxth	r4, r4
 80035f6:	1cb2      	adds	r2, r6, #2
 80035f8:	e9cd 4300 	strd	r4, r3, [sp]
 80035fc:	b212      	sxth	r2, r2
 80035fe:	4653      	mov	r3, sl
 8003600:	2102      	movs	r1, #2
 8003602:	4628      	mov	r0, r5
 8003604:	f7fe f8d2 	bl	80017ac <LCD_DrawFilledRectangle>
 8003608:	3f01      	subs	r7, #1
 800360a:	44d8      	add	r8, fp
 800360c:	f109 0901 	add.w	r9, r9, #1
 8003610:	d1d8      	bne.n	80035c4 <Draw_TouchPenDemo+0x58>
 8003612:	ea4f 03cb 	mov.w	r3, fp, lsl #3
 8003616:	9307      	str	r3, [sp, #28]
 8003618:	f1cb 0202 	rsb	r2, fp, #2
 800361c:	4b5e      	ldr	r3, [pc, #376]	; (8003798 <Draw_TouchPenDemo+0x22c>)
 800361e:	9300      	str	r3, [sp, #0]
 8003620:	2001      	movs	r0, #1
 8003622:	f06f 437f 	mvn.w	r3, #4278190080	; 0xff000000
 8003626:	eb02 02cb 	add.w	r2, r2, fp, lsl #3
 800362a:	e9cd 3002 	strd	r3, r0, [sp, #8]
 800362e:	9701      	str	r7, [sp, #4]
 8003630:	4b5a      	ldr	r3, [pc, #360]	; (800379c <Draw_TouchPenDemo+0x230>)
 8003632:	9c06      	ldr	r4, [sp, #24]
 8003634:	9705      	str	r7, [sp, #20]
 8003636:	b292      	uxth	r2, r2
 8003638:	2102      	movs	r1, #2
 800363a:	4628      	mov	r0, r5
 800363c:	f7fe fe4a 	bl	80022d4 <LCD_WriteString>
 8003640:	4b57      	ldr	r3, [pc, #348]	; (80037a0 <Draw_TouchPenDemo+0x234>)
 8003642:	e893 0003 	ldmia.w	r3, {r0, r1}
 8003646:	f10d 084c 	add.w	r8, sp, #76	; 0x4c
 800364a:	e888 0003 	stmia.w	r8, {r0, r1}
 800364e:	225c      	movs	r2, #92	; 0x5c
 8003650:	4639      	mov	r1, r7
 8003652:	a815      	add	r0, sp, #84	; 0x54
 8003654:	f04f 36ff 	mov.w	r6, #4294967295
 8003658:	f000 fcde 	bl	8004018 <memset>
 800365c:	f104 0918 	add.w	r9, r4, #24
 8003660:	f104 0a30 	add.w	sl, r4, #48	; 0x30
 8003664:	4637      	mov	r7, r6
 8003666:	e01c      	b.n	80036a2 <Draw_TouchPenDemo+0x136>
 8003668:	1e58      	subs	r0, r3, #1
 800366a:	88eb      	ldrh	r3, [r5, #6]
 800366c:	4563      	cmp	r3, ip
 800366e:	dc01      	bgt.n	8003674 <Draw_TouchPenDemo+0x108>
 8003670:	f103 3cff 	add.w	ip, r3, #4294967295
 8003674:	1c41      	adds	r1, r0, #1
 8003676:	f040 8085 	bne.w	8003784 <Draw_TouchPenDemo+0x218>
 800367a:	1c7a      	adds	r2, r7, #1
 800367c:	d04f      	beq.n	800371e <Draw_TouchPenDemo+0x1b2>
 800367e:	1c73      	adds	r3, r6, #1
 8003680:	d04d      	beq.n	800371e <Draw_TouchPenDemo+0x1b2>
 8003682:	9b05      	ldr	r3, [sp, #20]
 8003684:	9301      	str	r3, [sp, #4]
 8003686:	fa0f f38c 	sxth.w	r3, ip
 800368a:	b232      	sxth	r2, r6
 800368c:	b239      	sxth	r1, r7
 800368e:	9300      	str	r3, [sp, #0]
 8003690:	4607      	mov	r7, r0
 8003692:	b203      	sxth	r3, r0
 8003694:	4628      	mov	r0, r5
 8003696:	4666      	mov	r6, ip
 8003698:	f7fd ffaa 	bl	80015f0 <LCD_DrawLine>
 800369c:	2001      	movs	r0, #1
 800369e:	f7ff f8fb 	bl	8002898 <LL_mDelay>
 80036a2:	4620      	mov	r0, r4
 80036a4:	f000 fb6e 	bl	8003d84 <XPT2046_GetTouch>
 80036a8:	f894 3029 	ldrb.w	r3, [r4, #41]	; 0x29
 80036ac:	2b00      	cmp	r3, #0
 80036ae:	d040      	beq.n	8003732 <Draw_TouchPenDemo+0x1c6>
 80036b0:	a809      	add	r0, sp, #36	; 0x24
 80036b2:	4652      	mov	r2, sl
 80036b4:	4649      	mov	r1, r9
 80036b6:	f7ff f907 	bl	80028c8 <XPT2046_ConvertPoint>
 80036ba:	9b0a      	ldr	r3, [sp, #40]	; 0x28
 80036bc:	9809      	ldr	r0, [sp, #36]	; 0x24
 80036be:	ea23 7ce3 	bic.w	ip, r3, r3, asr #31
 80036c2:	88ab      	ldrh	r3, [r5, #4]
 80036c4:	ea20 70e0 	bic.w	r0, r0, r0, asr #31
 80036c8:	4283      	cmp	r3, r0
 80036ca:	ddcd      	ble.n	8003668 <Draw_TouchPenDemo+0xfc>
 80036cc:	88eb      	ldrh	r3, [r5, #6]
 80036ce:	4563      	cmp	r3, ip
 80036d0:	ddce      	ble.n	8003670 <Draw_TouchPenDemo+0x104>
 80036d2:	4558      	cmp	r0, fp
 80036d4:	dad1      	bge.n	800367a <Draw_TouchPenDemo+0x10e>
 80036d6:	9b07      	ldr	r3, [sp, #28]
 80036d8:	459c      	cmp	ip, r3
 80036da:	dace      	bge.n	800367a <Draw_TouchPenDemo+0x10e>
 80036dc:	fbbc f3fb 	udiv	r3, ip, fp
 80036e0:	aa2c      	add	r2, sp, #176	; 0xb0
 80036e2:	eb02 0283 	add.w	r2, r2, r3, lsl #2
 80036e6:	2b07      	cmp	r3, #7
 80036e8:	f852 2c84 	ldr.w	r2, [r2, #-132]
 80036ec:	9205      	str	r2, [sp, #20]
 80036ee:	d1c4      	bne.n	800367a <Draw_TouchPenDemo+0x10e>
 80036f0:	4a2c      	ldr	r2, [pc, #176]	; (80037a4 <Draw_TouchPenDemo+0x238>)
 80036f2:	9201      	str	r2, [sp, #4]
 80036f4:	2100      	movs	r1, #0
 80036f6:	4a28      	ldr	r2, [pc, #160]	; (8003798 <Draw_TouchPenDemo+0x22c>)
 80036f8:	9200      	str	r2, [sp, #0]
 80036fa:	23ff      	movs	r3, #255	; 0xff
 80036fc:	e9cd 3102 	strd	r3, r1, [sp, #8]
 8003700:	4628      	mov	r0, r5
 8003702:	4b29      	ldr	r3, [pc, #164]	; (80037a8 <Draw_TouchPenDemo+0x23c>)
 8003704:	2296      	movs	r2, #150	; 0x96
 8003706:	2132      	movs	r1, #50	; 0x32
 8003708:	f7fe fde4 	bl	80022d4 <LCD_WriteString>
 800370c:	f44f 707a 	mov.w	r0, #1000	; 0x3e8
 8003710:	f7ff f8c2 	bl	8002898 <LL_mDelay>
 8003714:	b02d      	add	sp, #180	; 0xb4
 8003716:	ecbd 8b02 	vpop	{d8}
 800371a:	e8bd 8ff0 	ldmia.w	sp!, {r4, r5, r6, r7, r8, r9, sl, fp, pc}
 800371e:	b201      	sxth	r1, r0
 8003720:	4607      	mov	r7, r0
 8003722:	9b05      	ldr	r3, [sp, #20]
 8003724:	fa0f f28c 	sxth.w	r2, ip
 8003728:	4628      	mov	r0, r5
 800372a:	4666      	mov	r6, ip
 800372c:	f7fd ff4e 	bl	80015cc <LCD_DrawPixel>
 8003730:	e7b4      	b.n	800369c <Draw_TouchPenDemo+0x130>
 8003732:	6a22      	ldr	r2, [r4, #32]
 8003734:	6f20      	ldr	r0, [r4, #112]	; 0x70
 8003736:	9306      	str	r3, [sp, #24]
 8003738:	f10d 0153 	add.w	r1, sp, #83	; 0x53
 800373c:	fb02 f000 	mul.w	r0, r2, r0
 8003740:	220a      	movs	r2, #10
 8003742:	f000 fcf1 	bl	8004128 <utoa>
 8003746:	4640      	mov	r0, r8
 8003748:	f7fc fd4a 	bl	80001e0 <strlen>
 800374c:	4e17      	ldr	r6, [pc, #92]	; (80037ac <Draw_TouchPenDemo+0x240>)
 800374e:	9b06      	ldr	r3, [sp, #24]
 8003750:	4a14      	ldr	r2, [pc, #80]	; (80037a4 <Draw_TouchPenDemo+0x238>)
 8003752:	9201      	str	r2, [sp, #4]
 8003754:	4601      	mov	r1, r0
 8003756:	4a10      	ldr	r2, [pc, #64]	; (8003798 <Draw_TouchPenDemo+0x22c>)
 8003758:	6830      	ldr	r0, [r6, #0]
 800375a:	9303      	str	r3, [sp, #12]
 800375c:	9200      	str	r2, [sp, #0]
 800375e:	f848 0001 	str.w	r0, [r8, r1]
 8003762:	461a      	mov	r2, r3
 8003764:	4441      	add	r1, r8
 8003766:	23ff      	movs	r3, #255	; 0xff
 8003768:	9302      	str	r3, [sp, #8]
 800376a:	88b3      	ldrh	r3, [r6, #4]
 800376c:	808b      	strh	r3, [r1, #4]
 800376e:	79b3      	ldrb	r3, [r6, #6]
 8003770:	718b      	strb	r3, [r1, #6]
 8003772:	4628      	mov	r0, r5
 8003774:	4643      	mov	r3, r8
 8003776:	4659      	mov	r1, fp
 8003778:	f04f 36ff 	mov.w	r6, #4294967295
 800377c:	f7fe fdaa 	bl	80022d4 <LCD_WriteString>
 8003780:	4637      	mov	r7, r6
 8003782:	e78b      	b.n	800369c <Draw_TouchPenDemo+0x130>
 8003784:	4583      	cmp	fp, r0
 8003786:	f77f af78 	ble.w	800367a <Draw_TouchPenDemo+0x10e>
 800378a:	f1bc 3fff 	cmp.w	ip, #4294967295
 800378e:	f43f af74 	beq.w	800367a <Draw_TouchPenDemo+0x10e>
 8003792:	e7a0      	b.n	80036d6 <Draw_TouchPenDemo+0x16a>
 8003794:	08005168 	.word	0x08005168
 8003798:	20000004 	.word	0x20000004
 800379c:	08005ef4 	.word	0x08005ef4
 80037a0:	08005188 	.word	0x08005188
 80037a4:	00ffff00 	.word	0x00ffff00
 80037a8:	08005efc 	.word	0x08005efc
 80037ac:	08005f14 	.word	0x08005f14

080037b0 <RoadCircleDemo>:
 80037b0:	e92d 4ff0 	stmdb	sp!, {r4, r5, r6, r7, r8, r9, sl, fp, lr}
 80037b4:	ed2d 8b02 	vpush	{d8}
 80037b8:	f5ad 7d49 	sub.w	sp, sp, #804	; 0x324
 80037bc:	888b      	ldrh	r3, [r1, #4]
 80037be:	9305      	str	r3, [sp, #20]
 80037c0:	88cb      	ldrh	r3, [r1, #6]
 80037c2:	9306      	str	r3, [sp, #24]
 80037c4:	2301      	movs	r3, #1
 80037c6:	930b      	str	r3, [sp, #44]	; 0x2c
 80037c8:	4d99      	ldr	r5, [pc, #612]	; (8003a30 <RoadCircleDemo+0x280>)
 80037ca:	f100 0330 	add.w	r3, r0, #48	; 0x30
 80037ce:	ee08 3a90 	vmov	s17, r3
 80037d2:	f100 0318 	add.w	r3, r0, #24
 80037d6:	4683      	mov	fp, r0
 80037d8:	ee08 3a10 	vmov	s16, r3
 80037dc:	468a      	mov	sl, r1
 80037de:	cd0f      	ldmia	r5!, {r0, r1, r2, r3}
 80037e0:	ae0f      	add	r6, sp, #60	; 0x3c
 80037e2:	c60f      	stmia	r6!, {r0, r1, r2, r3}
 80037e4:	f855 3b18 	ldr.w	r3, [r5], #24
 80037e8:	7033      	strb	r3, [r6, #0]
 80037ea:	e895 0007 	ldmia.w	r5, {r0, r1, r2}
 80037ee:	af19      	add	r7, sp, #100	; 0x64
 80037f0:	c703      	stmia	r7!, {r0, r1}
 80037f2:	2400      	movs	r4, #0
 80037f4:	703a      	strb	r2, [r7, #0]
 80037f6:	4621      	mov	r1, r4
 80037f8:	225b      	movs	r2, #91	; 0x5b
 80037fa:	f10d 006d 	add.w	r0, sp, #109	; 0x6d
 80037fe:	f8cd 405d 	str.w	r4, [sp, #93]	; 0x5d
 8003802:	f8cd 404d 	str.w	r4, [sp, #77]	; 0x4d
 8003806:	f8cd 4051 	str.w	r4, [sp, #81]	; 0x51
 800380a:	f8cd 4055 	str.w	r4, [sp, #85]	; 0x55
 800380e:	f8cd 4059 	str.w	r4, [sp, #89]	; 0x59
 8003812:	9418      	str	r4, [sp, #96]	; 0x60
 8003814:	9404      	str	r4, [sp, #16]
 8003816:	f000 fbff 	bl	8004018 <memset>
 800381a:	4b86      	ldr	r3, [pc, #536]	; (8003a34 <RoadCircleDemo+0x284>)
 800381c:	f88b 4028 	strb.w	r4, [fp, #40]	; 0x28
 8003820:	681b      	ldr	r3, [r3, #0]
 8003822:	930a      	str	r3, [sp, #40]	; 0x28
 8003824:	f50d 7947 	add.w	r9, sp, #796	; 0x31c
 8003828:	e039      	b.n	800389e <RoadCircleDemo+0xee>
 800382a:	4b83      	ldr	r3, [pc, #524]	; (8003a38 <RoadCircleDemo+0x288>)
 800382c:	9301      	str	r3, [sp, #4]
 800382e:	4b83      	ldr	r3, [pc, #524]	; (8003a3c <RoadCircleDemo+0x28c>)
 8003830:	9300      	str	r3, [sp, #0]
 8003832:	2400      	movs	r4, #0
 8003834:	23ff      	movs	r3, #255	; 0xff
 8003836:	e9cd 3402 	strd	r3, r4, [sp, #8]
 800383a:	4622      	mov	r2, r4
 800383c:	ab0f      	add	r3, sp, #60	; 0x3c
 800383e:	4621      	mov	r1, r4
 8003840:	4650      	mov	r0, sl
 8003842:	f7fe fd47 	bl	80022d4 <LCD_WriteString>
 8003846:	4658      	mov	r0, fp
 8003848:	f000 fb84 	bl	8003f54 <XPT2046_GetTemp>
 800384c:	4b7c      	ldr	r3, [pc, #496]	; (8003a40 <RoadCircleDemo+0x290>)
 800384e:	4298      	cmp	r0, r3
 8003850:	4606      	mov	r6, r0
 8003852:	d022      	beq.n	800389a <RoadCircleDemo+0xea>
 8003854:	9b0b      	ldr	r3, [sp, #44]	; 0x2c
 8003856:	2b95      	cmp	r3, #149	; 0x95
 8003858:	f300 80d6 	bgt.w	8003a08 <RoadCircleDemo+0x258>
 800385c:	aa32      	add	r2, sp, #200	; 0xc8
 800385e:	f842 0023 	str.w	r0, [r2, r3, lsl #2]
 8003862:	3301      	adds	r3, #1
 8003864:	930b      	str	r3, [sp, #44]	; 0x2c
 8003866:	220a      	movs	r2, #10
 8003868:	a91b      	add	r1, sp, #108	; 0x6c
 800386a:	4630      	mov	r0, r6
 800386c:	f000 fc5c 	bl	8004128 <utoa>
 8003870:	a819      	add	r0, sp, #100	; 0x64
 8003872:	f7fc fcb5 	bl	80001e0 <strlen>
 8003876:	4a70      	ldr	r2, [pc, #448]	; (8003a38 <RoadCircleDemo+0x288>)
 8003878:	9201      	str	r2, [sp, #4]
 800387a:	4a70      	ldr	r2, [pc, #448]	; (8003a3c <RoadCircleDemo+0x28c>)
 800387c:	9200      	str	r2, [sp, #0]
 800387e:	4a71      	ldr	r2, [pc, #452]	; (8003a44 <RoadCircleDemo+0x294>)
 8003880:	4603      	mov	r3, r0
 8003882:	6810      	ldr	r0, [r2, #0]
 8003884:	aa19      	add	r2, sp, #100	; 0x64
 8003886:	2100      	movs	r1, #0
 8003888:	50d0      	str	r0, [r2, r3]
 800388a:	23ff      	movs	r3, #255	; 0xff
 800388c:	e9cd 3102 	strd	r3, r1, [sp, #8]
 8003890:	4650      	mov	r0, sl
 8003892:	4613      	mov	r3, r2
 8003894:	220d      	movs	r2, #13
 8003896:	f7fe fd1d 	bl	80022d4 <LCD_WriteString>
 800389a:	4b66      	ldr	r3, [pc, #408]	; (8003a34 <RoadCircleDemo+0x284>)
 800389c:	601d      	str	r5, [r3, #0]
 800389e:	9b04      	ldr	r3, [sp, #16]
 80038a0:	3302      	adds	r3, #2
 80038a2:	9304      	str	r3, [sp, #16]
 80038a4:	f000 fbc0 	bl	8004028 <rand>
 80038a8:	4604      	mov	r4, r0
 80038aa:	f000 fbbd 	bl	8004028 <rand>
 80038ae:	9b05      	ldr	r3, [sp, #20]
 80038b0:	b2a4      	uxth	r4, r4
 80038b2:	fb03 f404 	mul.w	r4, r3, r4
 80038b6:	4680      	mov	r8, r0
 80038b8:	f000 fbb6 	bl	8004028 <rand>
 80038bc:	9a06      	ldr	r2, [sp, #24]
 80038be:	9009      	str	r0, [sp, #36]	; 0x24
 80038c0:	fa1f f888 	uxth.w	r8, r8
 80038c4:	fb02 f808 	mul.w	r8, r2, r8
 80038c8:	f000 fbae 	bl	8004028 <rand>
 80038cc:	9008      	str	r0, [sp, #32]
 80038ce:	f000 fbab 	bl	8004028 <rand>
 80038d2:	9007      	str	r0, [sp, #28]
 80038d4:	f000 fba8 	bl	8004028 <rand>
 80038d8:	4605      	mov	r5, r0
 80038da:	f000 fba5 	bl	8004028 <rand>
 80038de:	4606      	mov	r6, r0
 80038e0:	f000 fba2 	bl	8004028 <rand>
 80038e4:	4607      	mov	r7, r0
 80038e6:	f000 fb9f 	bl	8004028 <rand>
 80038ea:	9a07      	ldr	r2, [sp, #28]
 80038ec:	9b08      	ldr	r3, [sp, #32]
 80038ee:	9909      	ldr	r1, [sp, #36]	; 0x24
 80038f0:	9003      	str	r0, [sp, #12]
 80038f2:	f04f 0c46 	mov.w	ip, #70	; 0x46
 80038f6:	b2bf      	uxth	r7, r7
 80038f8:	b2b6      	uxth	r6, r6
 80038fa:	b2ad      	uxth	r5, r5
 80038fc:	fb0c f707 	mul.w	r7, ip, r7
 8003900:	fb0c f606 	mul.w	r6, ip, r6
 8003904:	fb0c f505 	mul.w	r5, ip, r5
 8003908:	0c24      	lsrs	r4, r4, #16
 800390a:	ea4f 4818 	mov.w	r8, r8, lsr #16
 800390e:	b292      	uxth	r2, r2
 8003910:	b29b      	uxth	r3, r3
 8003912:	b289      	uxth	r1, r1
 8003914:	fb0c f303 	mul.w	r3, ip, r3
 8003918:	fb0c f202 	mul.w	r2, ip, r2
 800391c:	fb0c f101 	mul.w	r1, ip, r1
 8003920:	eba8 4717 	sub.w	r7, r8, r7, lsr #16
 8003924:	eba4 4616 	sub.w	r6, r4, r6, lsr #16
 8003928:	eb08 4515 	add.w	r5, r8, r5, lsr #16
 800392c:	eb04 4212 	add.w	r2, r4, r2, lsr #16
 8003930:	eba8 4813 	sub.w	r8, r8, r3, lsr #16
 8003934:	eba4 4111 	sub.w	r1, r4, r1, lsr #16
 8003938:	b236      	sxth	r6, r6
 800393a:	b22d      	sxth	r5, r5
 800393c:	b23f      	sxth	r7, r7
 800393e:	b213      	sxth	r3, r2
 8003940:	b209      	sxth	r1, r1
 8003942:	fa0f f288 	sxth.w	r2, r8
 8003946:	9601      	str	r6, [sp, #4]
 8003948:	9500      	str	r5, [sp, #0]
 800394a:	4650      	mov	r0, sl
 800394c:	9702      	str	r7, [sp, #8]
 800394e:	f7fd ff57 	bl	8001800 <LCD_DrawFilledTriangle>
 8003952:	f000 fb69 	bl	8004028 <rand>
 8003956:	4604      	mov	r4, r0
 8003958:	f000 fb66 	bl	8004028 <rand>
 800395c:	4605      	mov	r5, r0
 800395e:	f000 fb63 	bl	8004028 <rand>
 8003962:	4606      	mov	r6, r0
 8003964:	f000 fb60 	bl	8004028 <rand>
 8003968:	b2a1      	uxth	r1, r4
 800396a:	9000      	str	r0, [sp, #0]
 800396c:	9c06      	ldr	r4, [sp, #24]
 800396e:	9805      	ldr	r0, [sp, #20]
 8003970:	b2b3      	uxth	r3, r6
 8003972:	b2aa      	uxth	r2, r5
 8003974:	fb00 f101 	mul.w	r1, r0, r1
 8003978:	ebc3 1303 	rsb	r3, r3, r3, lsl #4
 800397c:	fb04 f202 	mul.w	r2, r4, r2
 8003980:	13db      	asrs	r3, r3, #15
 8003982:	1412      	asrs	r2, r2, #16
 8003984:	1409      	asrs	r1, r1, #16
 8003986:	4650      	mov	r0, sl
 8003988:	f7fe fac0 	bl	8001f0c <LCD_DrawFilledCircle>
 800398c:	4658      	mov	r0, fp
 800398e:	f000 f9f9 	bl	8003d84 <XPT2046_GetTouch>
 8003992:	f89b 3075 	ldrb.w	r3, [fp, #117]	; 0x75
 8003996:	2b01      	cmp	r3, #1
 8003998:	d01c      	beq.n	80039d4 <RoadCircleDemo+0x224>
 800399a:	2b02      	cmp	r3, #2
 800399c:	d02d      	beq.n	80039fa <RoadCircleDemo+0x24a>
 800399e:	4b25      	ldr	r3, [pc, #148]	; (8003a34 <RoadCircleDemo+0x284>)
 80039a0:	681d      	ldr	r5, [r3, #0]
 80039a2:	9b0a      	ldr	r3, [sp, #40]	; 0x28
 80039a4:	1aeb      	subs	r3, r5, r3
 80039a6:	f5b3 7f7a 	cmp.w	r3, #1000	; 0x3e8
 80039aa:	f4ff af3e 	bcc.w	800382a <RoadCircleDemo+0x7a>
 80039ae:	220a      	movs	r2, #10
 80039b0:	a913      	add	r1, sp, #76	; 0x4c
 80039b2:	9804      	ldr	r0, [sp, #16]
 80039b4:	f000 fbb8 	bl	8004128 <utoa>
 80039b8:	a80f      	add	r0, sp, #60	; 0x3c
 80039ba:	f7fc fc11 	bl	80001e0 <strlen>
 80039be:	4a1d      	ldr	r2, [pc, #116]	; (8003a34 <RoadCircleDemo+0x284>)
 80039c0:	6815      	ldr	r5, [r2, #0]
 80039c2:	4a20      	ldr	r2, [pc, #128]	; (8003a44 <RoadCircleDemo+0x294>)
 80039c4:	950a      	str	r5, [sp, #40]	; 0x28
 80039c6:	4603      	mov	r3, r0
 80039c8:	6810      	ldr	r0, [r2, #0]
 80039ca:	aa0f      	add	r2, sp, #60	; 0x3c
 80039cc:	50d0      	str	r0, [r2, r3]
 80039ce:	2300      	movs	r3, #0
 80039d0:	9304      	str	r3, [sp, #16]
 80039d2:	e72a      	b.n	800382a <RoadCircleDemo+0x7a>
 80039d4:	ee18 2a90 	vmov	r2, s17
 80039d8:	ee18 1a10 	vmov	r1, s16
 80039dc:	a80d      	add	r0, sp, #52	; 0x34
 80039de:	f7fe ff73 	bl	80028c8 <XPT2046_ConvertPoint>
 80039e2:	f06f 437f 	mvn.w	r3, #4278190080	; 0xff000000
 80039e6:	9300      	str	r3, [sp, #0]
 80039e8:	f9bd 2038 	ldrsh.w	r2, [sp, #56]	; 0x38
 80039ec:	f9bd 1034 	ldrsh.w	r1, [sp, #52]	; 0x34
 80039f0:	2314      	movs	r3, #20
 80039f2:	4650      	mov	r0, sl
 80039f4:	f7fe fa8a 	bl	8001f0c <LCD_DrawFilledCircle>
 80039f8:	e7d1      	b.n	800399e <RoadCircleDemo+0x1ee>
 80039fa:	f000 fb15 	bl	8004028 <rand>
 80039fe:	4601      	mov	r1, r0
 8003a00:	4650      	mov	r0, sl
 8003a02:	f7fd fdd3 	bl	80015ac <LCD_Fill>
 8003a06:	e7ca      	b.n	800399e <RoadCircleDemo+0x1ee>
 8003a08:	f44f 7215 	mov.w	r2, #596	; 0x254
 8003a0c:	a933      	add	r1, sp, #204	; 0xcc
 8003a0e:	a832      	add	r0, sp, #200	; 0xc8
 8003a10:	f000 fae8 	bl	8003fe4 <memmove>
 8003a14:	96c7      	str	r6, [sp, #796]	; 0x31c
 8003a16:	ab31      	add	r3, sp, #196	; 0xc4
 8003a18:	f853 2f04 	ldr.w	r2, [r3, #4]!
 8003a1c:	454b      	cmp	r3, r9
 8003a1e:	4414      	add	r4, r2
 8003a20:	d1fa      	bne.n	8003a18 <RoadCircleDemo+0x268>
 8003a22:	4b09      	ldr	r3, [pc, #36]	; (8003a48 <RoadCircleDemo+0x298>)
 8003a24:	fb83 3604 	smull	r3, r6, r3, r4
 8003a28:	17e4      	asrs	r4, r4, #31
 8003a2a:	ebc4 1626 	rsb	r6, r4, r6, asr #4
 8003a2e:	e71a      	b.n	8003866 <RoadCircleDemo+0xb6>
 8003a30:	080051ec 	.word	0x080051ec
 8003a34:	20000148 	.word	0x20000148
 8003a38:	00ffff00 	.word	0x00ffff00
 8003a3c:	20000004 	.word	0x20000004
 8003a40:	fffe7960 	.word	0xfffe7960
 8003a44:	08005f1c 	.word	0x08005f1c
 8003a48:	1b4e81b5 	.word	0x1b4e81b5

08003a4c <get_adc_in.constprop.0>:
 8003a4c:	e92d 4ff0 	stmdb	sp!, {r4, r5, r6, r7, r8, r9, sl, fp, lr}
 8003a50:	6803      	ldr	r3, [r0, #0]
 8003a52:	681a      	ldr	r2, [r3, #0]
 8003a54:	b087      	sub	sp, #28
 8003a56:	f012 0240 	ands.w	r2, r2, #64	; 0x40
 8003a5a:	9202      	str	r2, [sp, #8]
 8003a5c:	f040 80cd 	bne.w	8003bfa <get_adc_in.constprop.0+0x1ae>
 8003a60:	681a      	ldr	r2, [r3, #0]
 8003a62:	9203      	str	r2, [sp, #12]
 8003a64:	681a      	ldr	r2, [r3, #0]
 8003a66:	f422 422c 	bic.w	r2, r2, #44032	; 0xac00
 8003a6a:	f022 02bb 	bic.w	r2, r2, #187	; 0xbb
 8003a6e:	601a      	str	r2, [r3, #0]
 8003a70:	681a      	ldr	r2, [r3, #0]
 8003a72:	f042 0204 	orr.w	r2, r2, #4
 8003a76:	601a      	str	r2, [r3, #0]
 8003a78:	7902      	ldrb	r2, [r0, #4]
 8003a7a:	681c      	ldr	r4, [r3, #0]
 8003a7c:	00d2      	lsls	r2, r2, #3
 8003a7e:	f002 0238 	and.w	r2, r2, #56	; 0x38
 8003a82:	4322      	orrs	r2, r4
 8003a84:	601a      	str	r2, [r3, #0]
 8003a86:	681a      	ldr	r2, [r3, #0]
 8003a88:	6884      	ldr	r4, [r0, #8]
 8003a8a:	f042 0240 	orr.w	r2, r2, #64	; 0x40
 8003a8e:	601a      	str	r2, [r3, #0]
 8003a90:	8982      	ldrh	r2, [r0, #12]
 8003a92:	0412      	lsls	r2, r2, #16
 8003a94:	61a2      	str	r2, [r4, #24]
 8003a96:	f990 4016 	ldrsb.w	r4, [r0, #22]
 8003a9a:	f04f 0c00 	mov.w	ip, #0
 8003a9e:	4564      	cmp	r4, ip
 8003aa0:	db0e      	blt.n	8003ac0 <get_adc_in.constprop.0+0x74>
 8003aa2:	0962      	lsrs	r2, r4, #5
 8003aa4:	0092      	lsls	r2, r2, #2
 8003aa6:	f102 4260 	add.w	r2, r2, #3758096384	; 0xe0000000
 8003aaa:	f502 4261 	add.w	r2, r2, #57600	; 0xe100
 8003aae:	f004 041f 	and.w	r4, r4, #31
 8003ab2:	6815      	ldr	r5, [r2, #0]
 8003ab4:	40e5      	lsrs	r5, r4
 8003ab6:	f015 0501 	ands.w	r5, r5, #1
 8003aba:	9502      	str	r5, [sp, #8]
 8003abc:	f040 8093 	bne.w	8003be6 <get_adc_in.constprop.0+0x19a>
 8003ac0:	f04f 0e00 	mov.w	lr, #0
 8003ac4:	f04f 0801 	mov.w	r8, #1
 8003ac8:	4605      	mov	r5, r0
 8003aca:	ae04      	add	r6, sp, #16
 8003acc:	f8df b138 	ldr.w	fp, [pc, #312]	; 8003c08 <get_adc_in.constprop.0+0x1bc>
 8003ad0:	f88d 1010 	strb.w	r1, [sp, #16]
 8003ad4:	4640      	mov	r0, r8
 8003ad6:	f88d e011 	strb.w	lr, [sp, #17]
 8003ada:	4674      	mov	r4, lr
 8003adc:	4632      	mov	r2, r6
 8003ade:	f10d 0712 	add.w	r7, sp, #18
 8003ae2:	f10d 0917 	add.w	r9, sp, #23
 8003ae6:	46a8      	mov	r8, r5
 8003ae8:	60d9      	str	r1, [r3, #12]
 8003aea:	6899      	ldr	r1, [r3, #8]
 8003aec:	07cd      	lsls	r5, r1, #31
 8003aee:	d403      	bmi.n	8003af8 <get_adc_in.constprop.0+0xac>
 8003af0:	bf00      	nop
 8003af2:	6899      	ldr	r1, [r3, #8]
 8003af4:	07c9      	lsls	r1, r1, #31
 8003af6:	d5fb      	bpl.n	8003af0 <get_adc_in.constprop.0+0xa4>
 8003af8:	3201      	adds	r2, #1
 8003afa:	42ba      	cmp	r2, r7
 8003afc:	bf08      	it	eq
 8003afe:	4632      	moveq	r2, r6
 8003b00:	b15c      	cbz	r4, 8003b1a <get_adc_in.constprop.0+0xce>
 8003b02:	07e5      	lsls	r5, r4, #31
 8003b04:	68d9      	ldr	r1, [r3, #12]
 8003b06:	d50d      	bpl.n	8003b24 <get_adc_in.constprop.0+0xd8>
 8003b08:	2c21      	cmp	r4, #33	; 0x21
 8003b0a:	fa5f fc81 	uxtb.w	ip, r1
 8003b0e:	d02e      	beq.n	8003b6e <get_adc_in.constprop.0+0x122>
 8003b10:	3401      	adds	r4, #1
 8003b12:	2c22      	cmp	r4, #34	; 0x22
 8003b14:	d016      	beq.n	8003b44 <get_adc_in.constprop.0+0xf8>
 8003b16:	7811      	ldrb	r1, [r2, #0]
 8003b18:	e7e6      	b.n	8003ae8 <get_adc_in.constprop.0+0x9c>
 8003b1a:	68d9      	ldr	r1, [r3, #12]
 8003b1c:	2401      	movs	r4, #1
 8003b1e:	fa5f fc81 	uxtb.w	ip, r1
 8003b22:	e7f8      	b.n	8003b16 <get_adc_in.constprop.0+0xca>
 8003b24:	2c21      	cmp	r4, #33	; 0x21
 8003b26:	fa5f fa81 	uxtb.w	sl, r1
 8003b2a:	d020      	beq.n	8003b6e <get_adc_in.constprop.0+0x122>
 8003b2c:	2800      	cmp	r0, #0
 8003b2e:	d158      	bne.n	8003be2 <get_adc_in.constprop.0+0x196>
 8003b30:	2c01      	cmp	r4, #1
 8003b32:	d0ed      	beq.n	8003b10 <get_adc_in.constprop.0+0xc4>
 8003b34:	ea4a 210c 	orr.w	r1, sl, ip, lsl #8
 8003b38:	3401      	adds	r4, #1
 8003b3a:	f3c1 01cb 	ubfx	r1, r1, #3, #12
 8003b3e:	2c22      	cmp	r4, #34	; 0x22
 8003b40:	448e      	add	lr, r1
 8003b42:	d1e8      	bne.n	8003b16 <get_adc_in.constprop.0+0xca>
 8003b44:	9a02      	ldr	r2, [sp, #8]
 8003b46:	ea4f 132e 	mov.w	r3, lr, asr #4
 8003b4a:	b162      	cbz	r2, 8003b66 <get_adc_in.constprop.0+0x11a>
 8003b4c:	f998 2016 	ldrsb.w	r2, [r8, #22]
 8003b50:	2a00      	cmp	r2, #0
 8003b52:	db08      	blt.n	8003b66 <get_adc_in.constprop.0+0x11a>
 8003b54:	0954      	lsrs	r4, r2, #5
 8003b56:	482a      	ldr	r0, [pc, #168]	; (8003c00 <get_adc_in.constprop.0+0x1b4>)
 8003b58:	f002 021f 	and.w	r2, r2, #31
 8003b5c:	2101      	movs	r1, #1
 8003b5e:	fa01 f202 	lsl.w	r2, r1, r2
 8003b62:	f840 2024 	str.w	r2, [r0, r4, lsl #2]
 8003b66:	4618      	mov	r0, r3
 8003b68:	b007      	add	sp, #28
 8003b6a:	e8bd 8ff0 	ldmia.w	sp!, {r4, r5, r6, r7, r8, r9, sl, fp, pc}
 8003b6e:	2100      	movs	r1, #0
 8003b70:	60d9      	str	r1, [r3, #12]
 8003b72:	6899      	ldr	r1, [r3, #8]
 8003b74:	07c9      	lsls	r1, r1, #31
 8003b76:	d403      	bmi.n	8003b80 <get_adc_in.constprop.0+0x134>
 8003b78:	bf00      	nop
 8003b7a:	6899      	ldr	r1, [r3, #8]
 8003b7c:	07cd      	lsls	r5, r1, #31
 8003b7e:	d5fb      	bpl.n	8003b78 <get_adc_in.constprop.0+0x12c>
 8003b80:	f8db 1000 	ldr.w	r1, [fp]
 8003b84:	f8ad 1014 	strh.w	r1, [sp, #20]
 8003b88:	0c09      	lsrs	r1, r1, #16
 8003b8a:	f88d 1016 	strb.w	r1, [sp, #22]
 8003b8e:	68d9      	ldr	r1, [r3, #12]
 8003b90:	ad05      	add	r5, sp, #20
 8003b92:	fa5f fa81 	uxtb.w	sl, r1
 8003b96:	f815 1b01 	ldrb.w	r1, [r5], #1
 8003b9a:	60d9      	str	r1, [r3, #12]
 8003b9c:	6899      	ldr	r1, [r3, #8]
 8003b9e:	07c9      	lsls	r1, r1, #31
 8003ba0:	d403      	bmi.n	8003baa <get_adc_in.constprop.0+0x15e>
 8003ba2:	bf00      	nop
 8003ba4:	6899      	ldr	r1, [r3, #8]
 8003ba6:	07c9      	lsls	r1, r1, #31
 8003ba8:	d5fb      	bpl.n	8003ba2 <get_adc_in.constprop.0+0x156>
 8003baa:	45a9      	cmp	r9, r5
 8003bac:	d1f3      	bne.n	8003b96 <get_adc_in.constprop.0+0x14a>
 8003bae:	f8d8 1000 	ldr.w	r1, [r8]
 8003bb2:	9101      	str	r1, [sp, #4]
 8003bb4:	688d      	ldr	r5, [r1, #8]
 8003bb6:	062d      	lsls	r5, r5, #24
 8003bb8:	d504      	bpl.n	8003bc4 <get_adc_in.constprop.0+0x178>
 8003bba:	bf00      	nop
 8003bbc:	688d      	ldr	r5, [r1, #8]
 8003bbe:	062d      	lsls	r5, r5, #24
 8003bc0:	d4fb      	bmi.n	8003bba <get_adc_in.constprop.0+0x16e>
 8003bc2:	9101      	str	r1, [sp, #4]
 8003bc4:	f8d8 1008 	ldr.w	r1, [r8, #8]
 8003bc8:	f8b8 500c 	ldrh.w	r5, [r8, #12]
 8003bcc:	618d      	str	r5, [r1, #24]
 8003bce:	9901      	ldr	r1, [sp, #4]
 8003bd0:	680d      	ldr	r5, [r1, #0]
 8003bd2:	f025 0540 	bic.w	r5, r5, #64	; 0x40
 8003bd6:	600d      	str	r5, [r1, #0]
 8003bd8:	9d01      	ldr	r5, [sp, #4]
 8003bda:	9903      	ldr	r1, [sp, #12]
 8003bdc:	6029      	str	r1, [r5, #0]
 8003bde:	2800      	cmp	r0, #0
 8003be0:	d0a6      	beq.n	8003b30 <get_adc_in.constprop.0+0xe4>
 8003be2:	2000      	movs	r0, #0
 8003be4:	e794      	b.n	8003b10 <get_adc_in.constprop.0+0xc4>
 8003be6:	2501      	movs	r5, #1
 8003be8:	fa05 f404 	lsl.w	r4, r5, r4
 8003bec:	f8c2 4080 	str.w	r4, [r2, #128]	; 0x80
 8003bf0:	f3bf 8f4f 	dsb	sy
 8003bf4:	f3bf 8f6f 	isb	sy
 8003bf8:	e762      	b.n	8003ac0 <get_adc_in.constprop.0+0x74>
 8003bfa:	4b02      	ldr	r3, [pc, #8]	; (8003c04 <get_adc_in.constprop.0+0x1b8>)
 8003bfc:	e7b3      	b.n	8003b66 <get_adc_in.constprop.0+0x11a>
 8003bfe:	bf00      	nop
 8003c00:	e000e100 	.word	0xe000e100
 8003c04:	fffe7960 	.word	0xfffe7960
 8003c08:	08005278 	.word	0x08005278

08003c0c <XPT2046_InitTouch>:
 8003c0c:	e92d 41f0 	stmdb	sp!, {r4, r5, r6, r7, r8, lr}
 8003c10:	b082      	sub	sp, #8
 8003c12:	4615      	mov	r5, r2
 8003c14:	4688      	mov	r8, r1
 8003c16:	2278      	movs	r2, #120	; 0x78
 8003c18:	2100      	movs	r1, #0
 8003c1a:	af00      	add	r7, sp, #0
 8003c1c:	4604      	mov	r4, r0
 8003c1e:	f000 f9fb 	bl	8004018 <memset>
 8003c22:	cd0f      	ldmia	r5!, {r0, r1, r2, r3}
 8003c24:	4626      	mov	r6, r4
 8003c26:	f8c4 8070 	str.w	r8, [r4, #112]	; 0x70
 8003c2a:	c60f      	stmia	r6!, {r0, r1, r2, r3}
 8003c2c:	4b52      	ldr	r3, [pc, #328]	; (8003d78 <XPT2046_InitTouch+0x16c>)
 8003c2e:	601c      	str	r4, [r3, #0]
 8003c30:	6823      	ldr	r3, [r4, #0]
 8003c32:	e895 0003 	ldmia.w	r5, {r0, r1}
 8003c36:	681a      	ldr	r2, [r3, #0]
 8003c38:	0652      	lsls	r2, r2, #25
 8003c3a:	e886 0003 	stmia.w	r6, {r0, r1}
 8003c3e:	46ec      	mov	ip, sp
 8003c40:	f100 8081 	bmi.w	8003d46 <XPT2046_InitTouch+0x13a>
 8003c44:	6818      	ldr	r0, [r3, #0]
 8003c46:	681a      	ldr	r2, [r3, #0]
 8003c48:	89a1      	ldrh	r1, [r4, #12]
 8003c4a:	68a6      	ldr	r6, [r4, #8]
 8003c4c:	f422 422c 	bic.w	r2, r2, #44032	; 0xac00
 8003c50:	f022 02bb 	bic.w	r2, r2, #187	; 0xbb
 8003c54:	601a      	str	r2, [r3, #0]
 8003c56:	681a      	ldr	r2, [r3, #0]
 8003c58:	f042 0204 	orr.w	r2, r2, #4
 8003c5c:	601a      	str	r2, [r3, #0]
 8003c5e:	7922      	ldrb	r2, [r4, #4]
 8003c60:	681d      	ldr	r5, [r3, #0]
 8003c62:	00d2      	lsls	r2, r2, #3
 8003c64:	f002 0238 	and.w	r2, r2, #56	; 0x38
 8003c68:	432a      	orrs	r2, r5
 8003c6a:	601a      	str	r2, [r3, #0]
 8003c6c:	681d      	ldr	r5, [r3, #0]
 8003c6e:	040a      	lsls	r2, r1, #16
 8003c70:	f045 0540 	orr.w	r5, r5, #64	; 0x40
 8003c74:	601d      	str	r5, [r3, #0]
 8003c76:	61b2      	str	r2, [r6, #24]
 8003c78:	f994 1016 	ldrsb.w	r1, [r4, #22]
 8003c7c:	2900      	cmp	r1, #0
 8003c7e:	db6e      	blt.n	8003d5e <XPT2046_InitTouch+0x152>
 8003c80:	094a      	lsrs	r2, r1, #5
 8003c82:	0092      	lsls	r2, r2, #2
 8003c84:	f102 4260 	add.w	r2, r2, #3758096384	; 0xe0000000
 8003c88:	f502 4261 	add.w	r2, r2, #57600	; 0xe100
 8003c8c:	f001 011f 	and.w	r1, r1, #31
 8003c90:	6815      	ldr	r5, [r2, #0]
 8003c92:	40cd      	lsrs	r5, r1
 8003c94:	f015 0501 	ands.w	r5, r5, #1
 8003c98:	d163      	bne.n	8003d62 <XPT2046_InitTouch+0x156>
 8003c9a:	2280      	movs	r2, #128	; 0x80
 8003c9c:	60da      	str	r2, [r3, #12]
 8003c9e:	6899      	ldr	r1, [r3, #8]
 8003ca0:	803a      	strh	r2, [r7, #0]
 8003ca2:	07ce      	lsls	r6, r1, #31
 8003ca4:	d403      	bmi.n	8003cae <XPT2046_InitTouch+0xa2>
 8003ca6:	bf00      	nop
 8003ca8:	689a      	ldr	r2, [r3, #8]
 8003caa:	07d1      	lsls	r1, r2, #31
 8003cac:	d5fb      	bpl.n	8003ca6 <XPT2046_InitTouch+0x9a>
 8003cae:	787a      	ldrb	r2, [r7, #1]
 8003cb0:	68d9      	ldr	r1, [r3, #12]
 8003cb2:	60da      	str	r2, [r3, #12]
 8003cb4:	689a      	ldr	r2, [r3, #8]
 8003cb6:	07d2      	lsls	r2, r2, #31
 8003cb8:	d403      	bmi.n	8003cc2 <XPT2046_InitTouch+0xb6>
 8003cba:	bf00      	nop
 8003cbc:	689a      	ldr	r2, [r3, #8]
 8003cbe:	07d1      	lsls	r1, r2, #31
 8003cc0:	d5fb      	bpl.n	8003cba <XPT2046_InitTouch+0xae>
 8003cc2:	2200      	movs	r2, #0
 8003cc4:	68d9      	ldr	r1, [r3, #12]
 8003cc6:	60da      	str	r2, [r3, #12]
 8003cc8:	689a      	ldr	r2, [r3, #8]
 8003cca:	07d6      	lsls	r6, r2, #31
 8003ccc:	d403      	bmi.n	8003cd6 <XPT2046_InitTouch+0xca>
 8003cce:	bf00      	nop
 8003cd0:	689a      	ldr	r2, [r3, #8]
 8003cd2:	07d2      	lsls	r2, r2, #31
 8003cd4:	d5fb      	bpl.n	8003cce <XPT2046_InitTouch+0xc2>
 8003cd6:	4a29      	ldr	r2, [pc, #164]	; (8003d7c <XPT2046_InitTouch+0x170>)
 8003cd8:	68d9      	ldr	r1, [r3, #12]
 8003cda:	6812      	ldr	r2, [r2, #0]
 8003cdc:	80ba      	strh	r2, [r7, #4]
 8003cde:	0c12      	lsrs	r2, r2, #16
 8003ce0:	71ba      	strb	r2, [r7, #6]
 8003ce2:	1d39      	adds	r1, r7, #4
 8003ce4:	f107 0e07 	add.w	lr, r7, #7
 8003ce8:	f811 2b01 	ldrb.w	r2, [r1], #1
 8003cec:	60da      	str	r2, [r3, #12]
 8003cee:	689a      	ldr	r2, [r3, #8]
 8003cf0:	07d6      	lsls	r6, r2, #31
 8003cf2:	d403      	bmi.n	8003cfc <XPT2046_InitTouch+0xf0>
 8003cf4:	bf00      	nop
 8003cf6:	689a      	ldr	r2, [r3, #8]
 8003cf8:	07d2      	lsls	r2, r2, #31
 8003cfa:	d5fb      	bpl.n	8003cf4 <XPT2046_InitTouch+0xe8>
 8003cfc:	458e      	cmp	lr, r1
 8003cfe:	d1f3      	bne.n	8003ce8 <XPT2046_InitTouch+0xdc>
 8003d00:	6822      	ldr	r2, [r4, #0]
 8003d02:	6893      	ldr	r3, [r2, #8]
 8003d04:	061e      	lsls	r6, r3, #24
 8003d06:	d503      	bpl.n	8003d10 <XPT2046_InitTouch+0x104>
 8003d08:	bf00      	nop
 8003d0a:	6893      	ldr	r3, [r2, #8]
 8003d0c:	0619      	lsls	r1, r3, #24
 8003d0e:	d4fb      	bmi.n	8003d08 <XPT2046_InitTouch+0xfc>
 8003d10:	68a3      	ldr	r3, [r4, #8]
 8003d12:	89a1      	ldrh	r1, [r4, #12]
 8003d14:	6199      	str	r1, [r3, #24]
 8003d16:	6813      	ldr	r3, [r2, #0]
 8003d18:	f023 0340 	bic.w	r3, r3, #64	; 0x40
 8003d1c:	6013      	str	r3, [r2, #0]
 8003d1e:	6010      	str	r0, [r2, #0]
 8003d20:	b1c5      	cbz	r5, 8003d54 <XPT2046_InitTouch+0x148>
 8003d22:	f994 3016 	ldrsb.w	r3, [r4, #22]
 8003d26:	2b00      	cmp	r3, #0
 8003d28:	db14      	blt.n	8003d54 <XPT2046_InitTouch+0x148>
 8003d2a:	0958      	lsrs	r0, r3, #5
 8003d2c:	4914      	ldr	r1, [pc, #80]	; (8003d80 <XPT2046_InitTouch+0x174>)
 8003d2e:	2201      	movs	r2, #1
 8003d30:	f003 031f 	and.w	r3, r3, #31
 8003d34:	fa02 f303 	lsl.w	r3, r2, r3
 8003d38:	f841 3020 	str.w	r3, [r1, r0, lsl #2]
 8003d3c:	3708      	adds	r7, #8
 8003d3e:	46e5      	mov	sp, ip
 8003d40:	46bd      	mov	sp, r7
 8003d42:	e8bd 81f0 	ldmia.w	sp!, {r4, r5, r6, r7, r8, pc}
 8003d46:	6823      	ldr	r3, [r4, #0]
 8003d48:	681a      	ldr	r2, [r3, #0]
 8003d4a:	0652      	lsls	r2, r2, #25
 8003d4c:	46e5      	mov	sp, ip
 8003d4e:	f57f af79 	bpl.w	8003c44 <XPT2046_InitTouch+0x38>
 8003d52:	e7f8      	b.n	8003d46 <XPT2046_InitTouch+0x13a>
 8003d54:	3708      	adds	r7, #8
 8003d56:	46e5      	mov	sp, ip
 8003d58:	46bd      	mov	sp, r7
 8003d5a:	e8bd 81f0 	ldmia.w	sp!, {r4, r5, r6, r7, r8, pc}
 8003d5e:	2500      	movs	r5, #0
 8003d60:	e79b      	b.n	8003c9a <XPT2046_InitTouch+0x8e>
 8003d62:	2601      	movs	r6, #1
 8003d64:	fa06 f101 	lsl.w	r1, r6, r1
 8003d68:	f8c2 1080 	str.w	r1, [r2, #128]	; 0x80
 8003d6c:	f3bf 8f4f 	dsb	sy
 8003d70:	f3bf 8f6f 	isb	sy
 8003d74:	e791      	b.n	8003c9a <XPT2046_InitTouch+0x8e>
 8003d76:	bf00      	nop
 8003d78:	20000154 	.word	0x20000154
 8003d7c:	08005278 	.word	0x08005278
 8003d80:	e000e100 	.word	0xe000e100

08003d84 <XPT2046_GetTouch>:
 8003d84:	b570      	push	{r4, r5, r6, lr}
 8003d86:	f890 5028 	ldrb.w	r5, [r0, #40]	; 0x28
 8003d8a:	b98d      	cbnz	r5, 8003db0 <XPT2046_GetTouch+0x2c>
 8003d8c:	6903      	ldr	r3, [r0, #16]
 8003d8e:	8a82      	ldrh	r2, [r0, #20]
 8003d90:	691b      	ldr	r3, [r3, #16]
 8003d92:	421a      	tst	r2, r3
 8003d94:	4604      	mov	r4, r0
 8003d96:	d00e      	beq.n	8003db6 <XPT2046_GetTouch+0x32>
 8003d98:	2501      	movs	r5, #1
 8003d9a:	2100      	movs	r1, #0
 8003d9c:	6a62      	ldr	r2, [r4, #36]	; 0x24
 8003d9e:	6f23      	ldr	r3, [r4, #112]	; 0x70
 8003da0:	f884 1029 	strb.w	r1, [r4, #41]	; 0x29
 8003da4:	f8a4 5074 	strh.w	r5, [r4, #116]	; 0x74
 8003da8:	6222      	str	r2, [r4, #32]
 8003daa:	66e3      	str	r3, [r4, #108]	; 0x6c
 8003dac:	4628      	mov	r0, r5
 8003dae:	bd70      	pop	{r4, r5, r6, pc}
 8003db0:	2500      	movs	r5, #0
 8003db2:	4628      	mov	r0, r5
 8003db4:	bd70      	pop	{r4, r5, r6, pc}
 8003db6:	21d3      	movs	r1, #211	; 0xd3
 8003db8:	f7ff fe48 	bl	8003a4c <get_adc_in.constprop.0>
 8003dbc:	2193      	movs	r1, #147	; 0x93
 8003dbe:	4606      	mov	r6, r0
 8003dc0:	4620      	mov	r0, r4
 8003dc2:	f7ff fe43 	bl	8003a4c <get_adc_in.constprop.0>
 8003dc6:	4b13      	ldr	r3, [pc, #76]	; (8003e14 <XPT2046_GetTouch+0x90>)
 8003dc8:	429e      	cmp	r6, r3
 8003dca:	d012      	beq.n	8003df2 <XPT2046_GetTouch+0x6e>
 8003dcc:	4298      	cmp	r0, r3
 8003dce:	d010      	beq.n	8003df2 <XPT2046_GetTouch+0x6e>
 8003dd0:	6923      	ldr	r3, [r4, #16]
 8003dd2:	8aa2      	ldrh	r2, [r4, #20]
 8003dd4:	691b      	ldr	r3, [r3, #16]
 8003dd6:	421a      	tst	r2, r3
 8003dd8:	d1de      	bne.n	8003d98 <XPT2046_GetTouch+0x14>
 8003dda:	f894 3075 	ldrb.w	r3, [r4, #117]	; 0x75
 8003dde:	2201      	movs	r2, #1
 8003de0:	f884 2029 	strb.w	r2, [r4, #41]	; 0x29
 8003de4:	b93b      	cbnz	r3, 8003df6 <XPT2046_GetTouch+0x72>
 8003de6:	f884 2075 	strb.w	r2, [r4, #117]	; 0x75
 8003dea:	e9c4 6006 	strd	r6, r0, [r4, #24]
 8003dee:	4628      	mov	r0, r5
 8003df0:	bd70      	pop	{r4, r5, r6, pc}
 8003df2:	2502      	movs	r5, #2
 8003df4:	e7dd      	b.n	8003db2 <XPT2046_GetTouch+0x2e>
 8003df6:	2b01      	cmp	r3, #1
 8003df8:	d1f7      	bne.n	8003dea <XPT2046_GetTouch+0x66>
 8003dfa:	6f22      	ldr	r2, [r4, #112]	; 0x70
 8003dfc:	6a63      	ldr	r3, [r4, #36]	; 0x24
 8003dfe:	fb02 f303 	mul.w	r3, r2, r3
 8003e02:	f240 52db 	movw	r2, #1499	; 0x5db
 8003e06:	4293      	cmp	r3, r2
 8003e08:	bf84      	itt	hi
 8003e0a:	2302      	movhi	r3, #2
 8003e0c:	f884 3075 	strbhi.w	r3, [r4, #117]	; 0x75
 8003e10:	e7eb      	b.n	8003dea <XPT2046_GetTouch+0x66>
 8003e12:	bf00      	nop
 8003e14:	fffe7960 	.word	0xfffe7960

08003e18 <XPT2046_EXTICallback>:
 8003e18:	b328      	cbz	r0, 8003e66 <XPT2046_EXTICallback+0x4e>
 8003e1a:	6902      	ldr	r2, [r0, #16]
 8003e1c:	8a83      	ldrh	r3, [r0, #20]
 8003e1e:	6912      	ldr	r2, [r2, #16]
 8003e20:	4013      	ands	r3, r2
 8003e22:	d120      	bne.n	8003e66 <XPT2046_EXTICallback+0x4e>
 8003e24:	f990 1016 	ldrsb.w	r1, [r0, #22]
 8003e28:	6243      	str	r3, [r0, #36]	; 0x24
 8003e2a:	b410      	push	{r4}
 8003e2c:	2201      	movs	r2, #1
 8003e2e:	6f04      	ldr	r4, [r0, #112]	; 0x70
 8003e30:	f880 2068 	strb.w	r2, [r0, #104]	; 0x68
 8003e34:	2900      	cmp	r1, #0
 8003e36:	66c4      	str	r4, [r0, #108]	; 0x6c
 8003e38:	db10      	blt.n	8003e5c <XPT2046_EXTICallback+0x44>
 8003e3a:	094b      	lsrs	r3, r1, #5
 8003e3c:	009b      	lsls	r3, r3, #2
 8003e3e:	f103 4360 	add.w	r3, r3, #3758096384	; 0xe0000000
 8003e42:	f503 4361 	add.w	r3, r3, #57600	; 0xe100
 8003e46:	f001 011f 	and.w	r1, r1, #31
 8003e4a:	408a      	lsls	r2, r1
 8003e4c:	f8c3 2180 	str.w	r2, [r3, #384]	; 0x180
 8003e50:	f8c3 2080 	str.w	r2, [r3, #128]	; 0x80
 8003e54:	f3bf 8f4f 	dsb	sy
 8003e58:	f3bf 8f6f 	isb	sy
 8003e5c:	f3bf 8f4f 	dsb	sy
 8003e60:	f85d 4b04 	ldr.w	r4, [sp], #4
 8003e64:	4770      	bx	lr
 8003e66:	f3bf 8f4f 	dsb	sy
 8003e6a:	4770      	bx	lr

08003e6c <XPT2046_TIMCallback>:
 8003e6c:	b338      	cbz	r0, 8003ebe <XPT2046_TIMCallback+0x52>
 8003e6e:	b538      	push	{r3, r4, r5, lr}
 8003e70:	f890 3068 	ldrb.w	r3, [r0, #104]	; 0x68
 8003e74:	4604      	mov	r4, r0
 8003e76:	b1fb      	cbz	r3, 8003eb8 <XPT2046_TIMCallback+0x4c>
 8003e78:	6ec3      	ldr	r3, [r0, #108]	; 0x6c
 8003e7a:	3b01      	subs	r3, #1
 8003e7c:	66c3      	str	r3, [r0, #108]	; 0x6c
 8003e7e:	b9bb      	cbnz	r3, 8003eb0 <XPT2046_TIMCallback+0x44>
 8003e80:	f890 1074 	ldrb.w	r1, [r0, #116]	; 0x74
 8003e84:	6f02      	ldr	r2, [r0, #112]	; 0x70
 8003e86:	66c2      	str	r2, [r0, #108]	; 0x6c
 8003e88:	b9e1      	cbnz	r1, 8003ec4 <XPT2046_TIMCallback+0x58>
 8003e8a:	f890 3028 	ldrb.w	r3, [r0, #40]	; 0x28
 8003e8e:	b183      	cbz	r3, 8003eb2 <XPT2046_TIMCallback+0x46>
 8003e90:	6903      	ldr	r3, [r0, #16]
 8003e92:	8a81      	ldrh	r1, [r0, #20]
 8003e94:	691b      	ldr	r3, [r3, #16]
 8003e96:	4219      	tst	r1, r3
 8003e98:	d02b      	beq.n	8003ef2 <XPT2046_TIMCallback+0x86>
 8003e9a:	6a61      	ldr	r1, [r4, #36]	; 0x24
 8003e9c:	6221      	str	r1, [r4, #32]
 8003e9e:	2000      	movs	r0, #0
 8003ea0:	2301      	movs	r3, #1
 8003ea2:	f884 0029 	strb.w	r0, [r4, #41]	; 0x29
 8003ea6:	f884 3074 	strb.w	r3, [r4, #116]	; 0x74
 8003eaa:	66e2      	str	r2, [r4, #108]	; 0x6c
 8003eac:	f3bf 8f4f 	dsb	sy
 8003eb0:	bd38      	pop	{r3, r4, r5, pc}
 8003eb2:	6a63      	ldr	r3, [r4, #36]	; 0x24
 8003eb4:	3301      	adds	r3, #1
 8003eb6:	6263      	str	r3, [r4, #36]	; 0x24
 8003eb8:	f3bf 8f4f 	dsb	sy
 8003ebc:	bd38      	pop	{r3, r4, r5, pc}
 8003ebe:	f3bf 8f4f 	dsb	sy
 8003ec2:	4770      	bx	lr
 8003ec4:	f990 2016 	ldrsb.w	r2, [r0, #22]
 8003ec8:	f880 3074 	strb.w	r3, [r0, #116]	; 0x74
 8003ecc:	2a00      	cmp	r2, #0
 8003ece:	f880 3068 	strb.w	r3, [r0, #104]	; 0x68
 8003ed2:	dbf1      	blt.n	8003eb8 <XPT2046_TIMCallback+0x4c>
 8003ed4:	0953      	lsrs	r3, r2, #5
 8003ed6:	009b      	lsls	r3, r3, #2
 8003ed8:	f103 4360 	add.w	r3, r3, #3758096384	; 0xe0000000
 8003edc:	f503 4361 	add.w	r3, r3, #57600	; 0xe100
 8003ee0:	f002 021f 	and.w	r2, r2, #31
 8003ee4:	2101      	movs	r1, #1
 8003ee6:	fa01 f202 	lsl.w	r2, r1, r2
 8003eea:	f8c3 2180 	str.w	r2, [r3, #384]	; 0x180
 8003eee:	601a      	str	r2, [r3, #0]
 8003ef0:	e7e2      	b.n	8003eb8 <XPT2046_TIMCallback+0x4c>
 8003ef2:	21d3      	movs	r1, #211	; 0xd3
 8003ef4:	f7ff fdaa 	bl	8003a4c <get_adc_in.constprop.0>
 8003ef8:	2193      	movs	r1, #147	; 0x93
 8003efa:	4605      	mov	r5, r0
 8003efc:	4620      	mov	r0, r4
 8003efe:	f7ff fda5 	bl	8003a4c <get_adc_in.constprop.0>
 8003f02:	4b13      	ldr	r3, [pc, #76]	; (8003f50 <XPT2046_TIMCallback+0xe4>)
 8003f04:	429d      	cmp	r5, r3
 8003f06:	d0d4      	beq.n	8003eb2 <XPT2046_TIMCallback+0x46>
 8003f08:	4298      	cmp	r0, r3
 8003f0a:	d0d2      	beq.n	8003eb2 <XPT2046_TIMCallback+0x46>
 8003f0c:	6923      	ldr	r3, [r4, #16]
 8003f0e:	8aa2      	ldrh	r2, [r4, #20]
 8003f10:	691b      	ldr	r3, [r3, #16]
 8003f12:	421a      	tst	r2, r3
 8003f14:	d10b      	bne.n	8003f2e <XPT2046_TIMCallback+0xc2>
 8003f16:	f894 3075 	ldrb.w	r3, [r4, #117]	; 0x75
 8003f1a:	2201      	movs	r2, #1
 8003f1c:	f884 2029 	strb.w	r2, [r4, #41]	; 0x29
 8003f20:	b93b      	cbnz	r3, 8003f32 <XPT2046_TIMCallback+0xc6>
 8003f22:	6a63      	ldr	r3, [r4, #36]	; 0x24
 8003f24:	f884 2075 	strb.w	r2, [r4, #117]	; 0x75
 8003f28:	e9c4 5006 	strd	r5, r0, [r4, #24]
 8003f2c:	e7c2      	b.n	8003eb4 <XPT2046_TIMCallback+0x48>
 8003f2e:	6f22      	ldr	r2, [r4, #112]	; 0x70
 8003f30:	e7b3      	b.n	8003e9a <XPT2046_TIMCallback+0x2e>
 8003f32:	2b01      	cmp	r3, #1
 8003f34:	6a63      	ldr	r3, [r4, #36]	; 0x24
 8003f36:	d1f7      	bne.n	8003f28 <XPT2046_TIMCallback+0xbc>
 8003f38:	6f22      	ldr	r2, [r4, #112]	; 0x70
 8003f3a:	f240 51db 	movw	r1, #1499	; 0x5db
 8003f3e:	fb03 f202 	mul.w	r2, r3, r2
 8003f42:	428a      	cmp	r2, r1
 8003f44:	bf84      	itt	hi
 8003f46:	2202      	movhi	r2, #2
 8003f48:	f884 2075 	strbhi.w	r2, [r4, #117]	; 0x75
 8003f4c:	e7ec      	b.n	8003f28 <XPT2046_TIMCallback+0xbc>
 8003f4e:	bf00      	nop
 8003f50:	fffe7960 	.word	0xfffe7960

08003f54 <XPT2046_GetTemp>:
 8003f54:	b538      	push	{r3, r4, r5, lr}
 8003f56:	2187      	movs	r1, #135	; 0x87
 8003f58:	4605      	mov	r5, r0
 8003f5a:	f7ff fd77 	bl	8003a4c <get_adc_in.constprop.0>
 8003f5e:	21f7      	movs	r1, #247	; 0xf7
 8003f60:	4604      	mov	r4, r0
 8003f62:	4628      	mov	r0, r5
 8003f64:	f7ff fd72 	bl	8003a4c <get_adc_in.constprop.0>
 8003f68:	4b08      	ldr	r3, [pc, #32]	; (8003f8c <XPT2046_GetTemp+0x38>)
 8003f6a:	429c      	cmp	r4, r3
 8003f6c:	d00a      	beq.n	8003f84 <XPT2046_GetTemp+0x30>
 8003f6e:	4298      	cmp	r0, r3
 8003f70:	d00a      	beq.n	8003f88 <XPT2046_GetTemp+0x34>
 8003f72:	1b00      	subs	r0, r0, r4
 8003f74:	f641 13a1 	movw	r3, #6561	; 0x19a1
 8003f78:	fb03 f000 	mul.w	r0, r3, r0
 8003f7c:	1300      	asrs	r0, r0, #12
 8003f7e:	f46f 7388 	mvn.w	r3, #272	; 0x110
 8003f82:	18c4      	adds	r4, r0, r3
 8003f84:	4620      	mov	r0, r4
 8003f86:	bd38      	pop	{r3, r4, r5, pc}
 8003f88:	4604      	mov	r4, r0
 8003f8a:	e7fb      	b.n	8003f84 <XPT2046_GetTemp+0x30>
 8003f8c:	fffe7960 	.word	0xfffe7960

08003f90 <__errno>:
 8003f90:	4b01      	ldr	r3, [pc, #4]	; (8003f98 <__errno+0x8>)
 8003f92:	6818      	ldr	r0, [r3, #0]
 8003f94:	4770      	bx	lr
 8003f96:	bf00      	nop
 8003f98:	200000c8 	.word	0x200000c8

08003f9c <__libc_init_array>:
 8003f9c:	b570      	push	{r4, r5, r6, lr}
 8003f9e:	4d0d      	ldr	r5, [pc, #52]	; (8003fd4 <__libc_init_array+0x38>)
 8003fa0:	4c0d      	ldr	r4, [pc, #52]	; (8003fd8 <__libc_init_array+0x3c>)
 8003fa2:	1b64      	subs	r4, r4, r5
 8003fa4:	10a4      	asrs	r4, r4, #2
 8003fa6:	2600      	movs	r6, #0
 8003fa8:	42a6      	cmp	r6, r4
 8003faa:	d109      	bne.n	8003fc0 <__libc_init_array+0x24>
 8003fac:	4d0b      	ldr	r5, [pc, #44]	; (8003fdc <__libc_init_array+0x40>)
 8003fae:	4c0c      	ldr	r4, [pc, #48]	; (8003fe0 <__libc_init_array+0x44>)
 8003fb0:	f001 f8b6 	bl	8005120 <_init>
 8003fb4:	1b64      	subs	r4, r4, r5
 8003fb6:	10a4      	asrs	r4, r4, #2
 8003fb8:	2600      	movs	r6, #0
 8003fba:	42a6      	cmp	r6, r4
 8003fbc:	d105      	bne.n	8003fca <__libc_init_array+0x2e>
 8003fbe:	bd70      	pop	{r4, r5, r6, pc}
 8003fc0:	f855 3b04 	ldr.w	r3, [r5], #4
 8003fc4:	4798      	blx	r3
 8003fc6:	3601      	adds	r6, #1
 8003fc8:	e7ee      	b.n	8003fa8 <__libc_init_array+0xc>
 8003fca:	f855 3b04 	ldr.w	r3, [r5], #4
 8003fce:	4798      	blx	r3
 8003fd0:	3601      	adds	r6, #1
 8003fd2:	e7f2      	b.n	8003fba <__libc_init_array+0x1e>
 8003fd4:	08006094 	.word	0x08006094
 8003fd8:	08006094 	.word	0x08006094
 8003fdc:	08006094 	.word	0x08006094
 8003fe0:	08006098 	.word	0x08006098

08003fe4 <memmove>:
 8003fe4:	4288      	cmp	r0, r1
 8003fe6:	b510      	push	{r4, lr}
 8003fe8:	eb01 0402 	add.w	r4, r1, r2
 8003fec:	d902      	bls.n	8003ff4 <memmove+0x10>
 8003fee:	4284      	cmp	r4, r0
 8003ff0:	4623      	mov	r3, r4
 8003ff2:	d807      	bhi.n	8004004 <memmove+0x20>
 8003ff4:	1e43      	subs	r3, r0, #1
 8003ff6:	42a1      	cmp	r1, r4
 8003ff8:	d008      	beq.n	800400c <memmove+0x28>
 8003ffa:	f811 2b01 	ldrb.w	r2, [r1], #1
 8003ffe:	f803 2f01 	strb.w	r2, [r3, #1]!
 8004002:	e7f8      	b.n	8003ff6 <memmove+0x12>
 8004004:	4402      	add	r2, r0
 8004006:	4601      	mov	r1, r0
 8004008:	428a      	cmp	r2, r1
 800400a:	d100      	bne.n	800400e <memmove+0x2a>
 800400c:	bd10      	pop	{r4, pc}
 800400e:	f813 4d01 	ldrb.w	r4, [r3, #-1]!
 8004012:	f802 4d01 	strb.w	r4, [r2, #-1]!
 8004016:	e7f7      	b.n	8004008 <memmove+0x24>

08004018 <memset>:
 8004018:	4402      	add	r2, r0
 800401a:	4603      	mov	r3, r0
 800401c:	4293      	cmp	r3, r2
 800401e:	d100      	bne.n	8004022 <memset+0xa>
 8004020:	4770      	bx	lr
 8004022:	f803 1b01 	strb.w	r1, [r3], #1
 8004026:	e7f9      	b.n	800401c <memset+0x4>

08004028 <rand>:
 8004028:	4b16      	ldr	r3, [pc, #88]	; (8004084 <rand+0x5c>)
 800402a:	b510      	push	{r4, lr}
 800402c:	681c      	ldr	r4, [r3, #0]
 800402e:	6ba3      	ldr	r3, [r4, #56]	; 0x38
 8004030:	b9b3      	cbnz	r3, 8004060 <rand+0x38>
 8004032:	2018      	movs	r0, #24
 8004034:	f000 f8aa 	bl	800418c <malloc>
 8004038:	63a0      	str	r0, [r4, #56]	; 0x38
 800403a:	b928      	cbnz	r0, 8004048 <rand+0x20>
 800403c:	4602      	mov	r2, r0
 800403e:	4b12      	ldr	r3, [pc, #72]	; (8004088 <rand+0x60>)
 8004040:	4812      	ldr	r0, [pc, #72]	; (800408c <rand+0x64>)
 8004042:	214e      	movs	r1, #78	; 0x4e
 8004044:	f000 f872 	bl	800412c <__assert_func>
 8004048:	4a11      	ldr	r2, [pc, #68]	; (8004090 <rand+0x68>)
 800404a:	4b12      	ldr	r3, [pc, #72]	; (8004094 <rand+0x6c>)
 800404c:	e9c0 2300 	strd	r2, r3, [r0]
 8004050:	4b11      	ldr	r3, [pc, #68]	; (8004098 <rand+0x70>)
 8004052:	6083      	str	r3, [r0, #8]
 8004054:	230b      	movs	r3, #11
 8004056:	8183      	strh	r3, [r0, #12]
 8004058:	2201      	movs	r2, #1
 800405a:	2300      	movs	r3, #0
 800405c:	e9c0 2304 	strd	r2, r3, [r0, #16]
 8004060:	6ba4      	ldr	r4, [r4, #56]	; 0x38
 8004062:	4a0e      	ldr	r2, [pc, #56]	; (800409c <rand+0x74>)
 8004064:	6920      	ldr	r0, [r4, #16]
 8004066:	6963      	ldr	r3, [r4, #20]
 8004068:	490d      	ldr	r1, [pc, #52]	; (80040a0 <rand+0x78>)
 800406a:	4342      	muls	r2, r0
 800406c:	fb01 2203 	mla	r2, r1, r3, r2
 8004070:	fba0 0101 	umull	r0, r1, r0, r1
 8004074:	1c43      	adds	r3, r0, #1
 8004076:	eb42 0001 	adc.w	r0, r2, r1
 800407a:	e9c4 3004 	strd	r3, r0, [r4, #16]
 800407e:	f020 4000 	bic.w	r0, r0, #2147483648	; 0x80000000
 8004082:	bd10      	pop	{r4, pc}
 8004084:	200000c8 	.word	0x200000c8
 8004088:	08005f24 	.word	0x08005f24
 800408c:	08005f3b 	.word	0x08005f3b
 8004090:	abcd330e 	.word	0xabcd330e
 8004094:	e66d1234 	.word	0xe66d1234
 8004098:	0005deec 	.word	0x0005deec
 800409c:	5851f42d 	.word	0x5851f42d
 80040a0:	4c957f2d 	.word	0x4c957f2d

080040a4 <__utoa>:
 80040a4:	b5f0      	push	{r4, r5, r6, r7, lr}
 80040a6:	4c1f      	ldr	r4, [pc, #124]	; (8004124 <__utoa+0x80>)
 80040a8:	b08b      	sub	sp, #44	; 0x2c
 80040aa:	4605      	mov	r5, r0
 80040ac:	460b      	mov	r3, r1
 80040ae:	466e      	mov	r6, sp
 80040b0:	f104 0c20 	add.w	ip, r4, #32
 80040b4:	6820      	ldr	r0, [r4, #0]
 80040b6:	6861      	ldr	r1, [r4, #4]
 80040b8:	4637      	mov	r7, r6
 80040ba:	c703      	stmia	r7!, {r0, r1}
 80040bc:	3408      	adds	r4, #8
 80040be:	4564      	cmp	r4, ip
 80040c0:	463e      	mov	r6, r7
 80040c2:	d1f7      	bne.n	80040b4 <__utoa+0x10>
 80040c4:	7921      	ldrb	r1, [r4, #4]
 80040c6:	7139      	strb	r1, [r7, #4]
 80040c8:	1e91      	subs	r1, r2, #2
 80040ca:	6820      	ldr	r0, [r4, #0]
 80040cc:	6038      	str	r0, [r7, #0]
 80040ce:	2922      	cmp	r1, #34	; 0x22
 80040d0:	f04f 0100 	mov.w	r1, #0
 80040d4:	d904      	bls.n	80040e0 <__utoa+0x3c>
 80040d6:	7019      	strb	r1, [r3, #0]
 80040d8:	460b      	mov	r3, r1
 80040da:	4618      	mov	r0, r3
 80040dc:	b00b      	add	sp, #44	; 0x2c
 80040de:	bdf0      	pop	{r4, r5, r6, r7, pc}
 80040e0:	1e58      	subs	r0, r3, #1
 80040e2:	4684      	mov	ip, r0
 80040e4:	fbb5 f7f2 	udiv	r7, r5, r2
 80040e8:	fb02 5617 	mls	r6, r2, r7, r5
 80040ec:	3628      	adds	r6, #40	; 0x28
 80040ee:	446e      	add	r6, sp
 80040f0:	460c      	mov	r4, r1
 80040f2:	f816 6c28 	ldrb.w	r6, [r6, #-40]
 80040f6:	f80c 6f01 	strb.w	r6, [ip, #1]!
 80040fa:	462e      	mov	r6, r5
 80040fc:	42b2      	cmp	r2, r6
 80040fe:	f101 0101 	add.w	r1, r1, #1
 8004102:	463d      	mov	r5, r7
 8004104:	d9ee      	bls.n	80040e4 <__utoa+0x40>
 8004106:	2200      	movs	r2, #0
 8004108:	545a      	strb	r2, [r3, r1]
 800410a:	1919      	adds	r1, r3, r4
 800410c:	1aa5      	subs	r5, r4, r2
 800410e:	42aa      	cmp	r2, r5
 8004110:	dae3      	bge.n	80040da <__utoa+0x36>
 8004112:	f810 5f01 	ldrb.w	r5, [r0, #1]!
 8004116:	780e      	ldrb	r6, [r1, #0]
 8004118:	7006      	strb	r6, [r0, #0]
 800411a:	3201      	adds	r2, #1
 800411c:	f801 5901 	strb.w	r5, [r1], #-1
 8004120:	e7f4      	b.n	800410c <__utoa+0x68>
 8004122:	bf00      	nop
 8004124:	08005f96 	.word	0x08005f96

08004128 <utoa>:
 8004128:	f7ff bfbc 	b.w	80040a4 <__utoa>

0800412c <__assert_func>:
 800412c:	b51f      	push	{r0, r1, r2, r3, r4, lr}
 800412e:	4614      	mov	r4, r2
 8004130:	461a      	mov	r2, r3
 8004132:	4b09      	ldr	r3, [pc, #36]	; (8004158 <__assert_func+0x2c>)
 8004134:	681b      	ldr	r3, [r3, #0]
 8004136:	4605      	mov	r5, r0
 8004138:	68d8      	ldr	r0, [r3, #12]
 800413a:	b14c      	cbz	r4, 8004150 <__assert_func+0x24>
 800413c:	4b07      	ldr	r3, [pc, #28]	; (800415c <__assert_func+0x30>)
 800413e:	9100      	str	r1, [sp, #0]
 8004140:	e9cd 3401 	strd	r3, r4, [sp, #4]
 8004144:	4906      	ldr	r1, [pc, #24]	; (8004160 <__assert_func+0x34>)
 8004146:	462b      	mov	r3, r5
 8004148:	f000 f80e 	bl	8004168 <fiprintf>
 800414c:	f000 fcc4 	bl	8004ad8 <abort>
 8004150:	4b04      	ldr	r3, [pc, #16]	; (8004164 <__assert_func+0x38>)
 8004152:	461c      	mov	r4, r3
 8004154:	e7f3      	b.n	800413e <__assert_func+0x12>
 8004156:	bf00      	nop
 8004158:	200000c8 	.word	0x200000c8
 800415c:	08005fbb 	.word	0x08005fbb
 8004160:	08005fc8 	.word	0x08005fc8
 8004164:	08005ff6 	.word	0x08005ff6

08004168 <fiprintf>:
 8004168:	b40e      	push	{r1, r2, r3}
 800416a:	b503      	push	{r0, r1, lr}
 800416c:	4601      	mov	r1, r0
 800416e:	ab03      	add	r3, sp, #12
 8004170:	4805      	ldr	r0, [pc, #20]	; (8004188 <fiprintf+0x20>)
 8004172:	f853 2b04 	ldr.w	r2, [r3], #4
 8004176:	6800      	ldr	r0, [r0, #0]
 8004178:	9301      	str	r3, [sp, #4]
 800417a:	f000 f919 	bl	80043b0 <_vfiprintf_r>
 800417e:	b002      	add	sp, #8
 8004180:	f85d eb04 	ldr.w	lr, [sp], #4
 8004184:	b003      	add	sp, #12
 8004186:	4770      	bx	lr
 8004188:	200000c8 	.word	0x200000c8

0800418c <malloc>:
 800418c:	4b02      	ldr	r3, [pc, #8]	; (8004198 <malloc+0xc>)
 800418e:	4601      	mov	r1, r0
 8004190:	6818      	ldr	r0, [r3, #0]
 8004192:	f000 b86f 	b.w	8004274 <_malloc_r>
 8004196:	bf00      	nop
 8004198:	200000c8 	.word	0x200000c8

0800419c <_free_r>:
 800419c:	b537      	push	{r0, r1, r2, r4, r5, lr}
 800419e:	2900      	cmp	r1, #0
 80041a0:	d044      	beq.n	800422c <_free_r+0x90>
 80041a2:	f851 3c04 	ldr.w	r3, [r1, #-4]
 80041a6:	9001      	str	r0, [sp, #4]
 80041a8:	2b00      	cmp	r3, #0
 80041aa:	f1a1 0404 	sub.w	r4, r1, #4
 80041ae:	bfb8      	it	lt
 80041b0:	18e4      	addlt	r4, r4, r3
 80041b2:	f000 feb9 	bl	8004f28 <__malloc_lock>
 80041b6:	4a1e      	ldr	r2, [pc, #120]	; (8004230 <_free_r+0x94>)
 80041b8:	9801      	ldr	r0, [sp, #4]
 80041ba:	6813      	ldr	r3, [r2, #0]
 80041bc:	b933      	cbnz	r3, 80041cc <_free_r+0x30>
 80041be:	6063      	str	r3, [r4, #4]
 80041c0:	6014      	str	r4, [r2, #0]
 80041c2:	b003      	add	sp, #12
 80041c4:	e8bd 4030 	ldmia.w	sp!, {r4, r5, lr}
 80041c8:	f000 beb4 	b.w	8004f34 <__malloc_unlock>
 80041cc:	42a3      	cmp	r3, r4
 80041ce:	d908      	bls.n	80041e2 <_free_r+0x46>
 80041d0:	6825      	ldr	r5, [r4, #0]
 80041d2:	1961      	adds	r1, r4, r5
 80041d4:	428b      	cmp	r3, r1
 80041d6:	bf01      	itttt	eq
 80041d8:	6819      	ldreq	r1, [r3, #0]
 80041da:	685b      	ldreq	r3, [r3, #4]
 80041dc:	1949      	addeq	r1, r1, r5
 80041de:	6021      	streq	r1, [r4, #0]
 80041e0:	e7ed      	b.n	80041be <_free_r+0x22>
 80041e2:	461a      	mov	r2, r3
 80041e4:	685b      	ldr	r3, [r3, #4]
 80041e6:	b10b      	cbz	r3, 80041ec <_free_r+0x50>
 80041e8:	42a3      	cmp	r3, r4
 80041ea:	d9fa      	bls.n	80041e2 <_free_r+0x46>
 80041ec:	6811      	ldr	r1, [r2, #0]
 80041ee:	1855      	adds	r5, r2, r1
 80041f0:	42a5      	cmp	r5, r4
 80041f2:	d10b      	bne.n	800420c <_free_r+0x70>
 80041f4:	6824      	ldr	r4, [r4, #0]
 80041f6:	4421      	add	r1, r4
 80041f8:	1854      	adds	r4, r2, r1
 80041fa:	42a3      	cmp	r3, r4
 80041fc:	6011      	str	r1, [r2, #0]
 80041fe:	d1e0      	bne.n	80041c2 <_free_r+0x26>
 8004200:	681c      	ldr	r4, [r3, #0]
 8004202:	685b      	ldr	r3, [r3, #4]
 8004204:	6053      	str	r3, [r2, #4]
 8004206:	4421      	add	r1, r4
 8004208:	6011      	str	r1, [r2, #0]
 800420a:	e7da      	b.n	80041c2 <_free_r+0x26>
 800420c:	d902      	bls.n	8004214 <_free_r+0x78>
 800420e:	230c      	movs	r3, #12
 8004210:	6003      	str	r3, [r0, #0]
 8004212:	e7d6      	b.n	80041c2 <_free_r+0x26>
 8004214:	6825      	ldr	r5, [r4, #0]
 8004216:	1961      	adds	r1, r4, r5
 8004218:	428b      	cmp	r3, r1
 800421a:	bf04      	itt	eq
 800421c:	6819      	ldreq	r1, [r3, #0]
 800421e:	685b      	ldreq	r3, [r3, #4]
 8004220:	6063      	str	r3, [r4, #4]
 8004222:	bf04      	itt	eq
 8004224:	1949      	addeq	r1, r1, r5
 8004226:	6021      	streq	r1, [r4, #0]
 8004228:	6054      	str	r4, [r2, #4]
 800422a:	e7ca      	b.n	80041c2 <_free_r+0x26>
 800422c:	b003      	add	sp, #12
 800422e:	bd30      	pop	{r4, r5, pc}
 8004230:	20000158 	.word	0x20000158

08004234 <sbrk_aligned>:
 8004234:	b570      	push	{r4, r5, r6, lr}
 8004236:	4e0e      	ldr	r6, [pc, #56]	; (8004270 <sbrk_aligned+0x3c>)
 8004238:	460c      	mov	r4, r1
 800423a:	6831      	ldr	r1, [r6, #0]
 800423c:	4605      	mov	r5, r0
 800423e:	b911      	cbnz	r1, 8004246 <sbrk_aligned+0x12>
 8004240:	f000 fb7a 	bl	8004938 <_sbrk_r>
 8004244:	6030      	str	r0, [r6, #0]
 8004246:	4621      	mov	r1, r4
 8004248:	4628      	mov	r0, r5
 800424a:	f000 fb75 	bl	8004938 <_sbrk_r>
 800424e:	1c43      	adds	r3, r0, #1
 8004250:	d00a      	beq.n	8004268 <sbrk_aligned+0x34>
 8004252:	1cc4      	adds	r4, r0, #3
 8004254:	f024 0403 	bic.w	r4, r4, #3
 8004258:	42a0      	cmp	r0, r4
 800425a:	d007      	beq.n	800426c <sbrk_aligned+0x38>
 800425c:	1a21      	subs	r1, r4, r0
 800425e:	4628      	mov	r0, r5
 8004260:	f000 fb6a 	bl	8004938 <_sbrk_r>
 8004264:	3001      	adds	r0, #1
 8004266:	d101      	bne.n	800426c <sbrk_aligned+0x38>
 8004268:	f04f 34ff 	mov.w	r4, #4294967295
 800426c:	4620      	mov	r0, r4
 800426e:	bd70      	pop	{r4, r5, r6, pc}
 8004270:	2000015c 	.word	0x2000015c

08004274 <_malloc_r>:
 8004274:	e92d 41f0 	stmdb	sp!, {r4, r5, r6, r7, r8, lr}
 8004278:	1ccd      	adds	r5, r1, #3
 800427a:	f025 0503 	bic.w	r5, r5, #3
 800427e:	3508      	adds	r5, #8
 8004280:	2d0c      	cmp	r5, #12
 8004282:	bf38      	it	cc
 8004284:	250c      	movcc	r5, #12
 8004286:	2d00      	cmp	r5, #0
 8004288:	4607      	mov	r7, r0
 800428a:	db01      	blt.n	8004290 <_malloc_r+0x1c>
 800428c:	42a9      	cmp	r1, r5
 800428e:	d905      	bls.n	800429c <_malloc_r+0x28>
 8004290:	230c      	movs	r3, #12
 8004292:	603b      	str	r3, [r7, #0]
 8004294:	2600      	movs	r6, #0
 8004296:	4630      	mov	r0, r6
 8004298:	e8bd 81f0 	ldmia.w	sp!, {r4, r5, r6, r7, r8, pc}
 800429c:	4e2e      	ldr	r6, [pc, #184]	; (8004358 <_malloc_r+0xe4>)
 800429e:	f000 fe43 	bl	8004f28 <__malloc_lock>
 80042a2:	6833      	ldr	r3, [r6, #0]
 80042a4:	461c      	mov	r4, r3
 80042a6:	bb34      	cbnz	r4, 80042f6 <_malloc_r+0x82>
 80042a8:	4629      	mov	r1, r5
 80042aa:	4638      	mov	r0, r7
 80042ac:	f7ff ffc2 	bl	8004234 <sbrk_aligned>
 80042b0:	1c43      	adds	r3, r0, #1
 80042b2:	4604      	mov	r4, r0
 80042b4:	d14d      	bne.n	8004352 <_malloc_r+0xde>
 80042b6:	6834      	ldr	r4, [r6, #0]
 80042b8:	4626      	mov	r6, r4
 80042ba:	2e00      	cmp	r6, #0
 80042bc:	d140      	bne.n	8004340 <_malloc_r+0xcc>
 80042be:	6823      	ldr	r3, [r4, #0]
 80042c0:	4631      	mov	r1, r6
 80042c2:	4638      	mov	r0, r7
 80042c4:	eb04 0803 	add.w	r8, r4, r3
 80042c8:	f000 fb36 	bl	8004938 <_sbrk_r>
 80042cc:	4580      	cmp	r8, r0
 80042ce:	d13a      	bne.n	8004346 <_malloc_r+0xd2>
 80042d0:	6821      	ldr	r1, [r4, #0]
 80042d2:	3503      	adds	r5, #3
 80042d4:	1a6d      	subs	r5, r5, r1
 80042d6:	f025 0503 	bic.w	r5, r5, #3
 80042da:	3508      	adds	r5, #8
 80042dc:	2d0c      	cmp	r5, #12
 80042de:	bf38      	it	cc
 80042e0:	250c      	movcc	r5, #12
 80042e2:	4629      	mov	r1, r5
 80042e4:	4638      	mov	r0, r7
 80042e6:	f7ff ffa5 	bl	8004234 <sbrk_aligned>
 80042ea:	3001      	adds	r0, #1
 80042ec:	d02b      	beq.n	8004346 <_malloc_r+0xd2>
 80042ee:	6823      	ldr	r3, [r4, #0]
 80042f0:	442b      	add	r3, r5
 80042f2:	6023      	str	r3, [r4, #0]
 80042f4:	e00e      	b.n	8004314 <_malloc_r+0xa0>
 80042f6:	6822      	ldr	r2, [r4, #0]
 80042f8:	1b52      	subs	r2, r2, r5
 80042fa:	d41e      	bmi.n	800433a <_malloc_r+0xc6>
 80042fc:	2a0b      	cmp	r2, #11
 80042fe:	d916      	bls.n	800432e <_malloc_r+0xba>
 8004300:	1961      	adds	r1, r4, r5
 8004302:	42a3      	cmp	r3, r4
 8004304:	6025      	str	r5, [r4, #0]
 8004306:	bf18      	it	ne
 8004308:	6059      	strne	r1, [r3, #4]
 800430a:	6863      	ldr	r3, [r4, #4]
 800430c:	bf08      	it	eq
 800430e:	6031      	streq	r1, [r6, #0]
 8004310:	5162      	str	r2, [r4, r5]
 8004312:	604b      	str	r3, [r1, #4]
 8004314:	4638      	mov	r0, r7
 8004316:	f104 060b 	add.w	r6, r4, #11
 800431a:	f000 fe0b 	bl	8004f34 <__malloc_unlock>
 800431e:	f026 0607 	bic.w	r6, r6, #7
 8004322:	1d23      	adds	r3, r4, #4
 8004324:	1af2      	subs	r2, r6, r3
 8004326:	d0b6      	beq.n	8004296 <_malloc_r+0x22>
 8004328:	1b9b      	subs	r3, r3, r6
 800432a:	50a3      	str	r3, [r4, r2]
 800432c:	e7b3      	b.n	8004296 <_malloc_r+0x22>
 800432e:	6862      	ldr	r2, [r4, #4]
 8004330:	42a3      	cmp	r3, r4
 8004332:	bf0c      	ite	eq
 8004334:	6032      	streq	r2, [r6, #0]
 8004336:	605a      	strne	r2, [r3, #4]
 8004338:	e7ec      	b.n	8004314 <_malloc_r+0xa0>
 800433a:	4623      	mov	r3, r4
 800433c:	6864      	ldr	r4, [r4, #4]
 800433e:	e7b2      	b.n	80042a6 <_malloc_r+0x32>
 8004340:	4634      	mov	r4, r6
 8004342:	6876      	ldr	r6, [r6, #4]
 8004344:	e7b9      	b.n	80042ba <_malloc_r+0x46>
 8004346:	230c      	movs	r3, #12
 8004348:	603b      	str	r3, [r7, #0]
 800434a:	4638      	mov	r0, r7
 800434c:	f000 fdf2 	bl	8004f34 <__malloc_unlock>
 8004350:	e7a1      	b.n	8004296 <_malloc_r+0x22>
 8004352:	6025      	str	r5, [r4, #0]
 8004354:	e7de      	b.n	8004314 <_malloc_r+0xa0>
 8004356:	bf00      	nop
 8004358:	20000158 	.word	0x20000158

0800435c <__sfputc_r>:
 800435c:	6893      	ldr	r3, [r2, #8]
 800435e:	3b01      	subs	r3, #1
 8004360:	2b00      	cmp	r3, #0
 8004362:	b410      	push	{r4}
 8004364:	6093      	str	r3, [r2, #8]
 8004366:	da08      	bge.n	800437a <__sfputc_r+0x1e>
 8004368:	6994      	ldr	r4, [r2, #24]
 800436a:	42a3      	cmp	r3, r4
 800436c:	db01      	blt.n	8004372 <__sfputc_r+0x16>
 800436e:	290a      	cmp	r1, #10
 8004370:	d103      	bne.n	800437a <__sfputc_r+0x1e>
 8004372:	f85d 4b04 	ldr.w	r4, [sp], #4
 8004376:	f000 baef 	b.w	8004958 <__swbuf_r>
 800437a:	6813      	ldr	r3, [r2, #0]
 800437c:	1c58      	adds	r0, r3, #1
 800437e:	6010      	str	r0, [r2, #0]
 8004380:	7019      	strb	r1, [r3, #0]
 8004382:	4608      	mov	r0, r1
 8004384:	f85d 4b04 	ldr.w	r4, [sp], #4
 8004388:	4770      	bx	lr

0800438a <__sfputs_r>:
 800438a:	b5f8      	push	{r3, r4, r5, r6, r7, lr}
 800438c:	4606      	mov	r6, r0
 800438e:	460f      	mov	r7, r1
 8004390:	4614      	mov	r4, r2
 8004392:	18d5      	adds	r5, r2, r3
 8004394:	42ac      	cmp	r4, r5
 8004396:	d101      	bne.n	800439c <__sfputs_r+0x12>
 8004398:	2000      	movs	r0, #0
 800439a:	e007      	b.n	80043ac <__sfputs_r+0x22>
 800439c:	f814 1b01 	ldrb.w	r1, [r4], #1
 80043a0:	463a      	mov	r2, r7
 80043a2:	4630      	mov	r0, r6
 80043a4:	f7ff ffda 	bl	800435c <__sfputc_r>
 80043a8:	1c43      	adds	r3, r0, #1
 80043aa:	d1f3      	bne.n	8004394 <__sfputs_r+0xa>
 80043ac:	bdf8      	pop	{r3, r4, r5, r6, r7, pc}
	...

080043b0 <_vfiprintf_r>:
 80043b0:	e92d 4ff0 	stmdb	sp!, {r4, r5, r6, r7, r8, r9, sl, fp, lr}
 80043b4:	460d      	mov	r5, r1
 80043b6:	b09d      	sub	sp, #116	; 0x74
 80043b8:	4614      	mov	r4, r2
 80043ba:	4698      	mov	r8, r3
 80043bc:	4606      	mov	r6, r0
 80043be:	b118      	cbz	r0, 80043c8 <_vfiprintf_r+0x18>
 80043c0:	6983      	ldr	r3, [r0, #24]
 80043c2:	b90b      	cbnz	r3, 80043c8 <_vfiprintf_r+0x18>
 80043c4:	f000 fcaa 	bl	8004d1c <__sinit>
 80043c8:	4b89      	ldr	r3, [pc, #548]	; (80045f0 <_vfiprintf_r+0x240>)
 80043ca:	429d      	cmp	r5, r3
 80043cc:	d11b      	bne.n	8004406 <_vfiprintf_r+0x56>
 80043ce:	6875      	ldr	r5, [r6, #4]
 80043d0:	6e6b      	ldr	r3, [r5, #100]	; 0x64
 80043d2:	07d9      	lsls	r1, r3, #31
 80043d4:	d405      	bmi.n	80043e2 <_vfiprintf_r+0x32>
 80043d6:	89ab      	ldrh	r3, [r5, #12]
 80043d8:	059a      	lsls	r2, r3, #22
 80043da:	d402      	bmi.n	80043e2 <_vfiprintf_r+0x32>
 80043dc:	6da8      	ldr	r0, [r5, #88]	; 0x58
 80043de:	f000 fd3b 	bl	8004e58 <__retarget_lock_acquire_recursive>
 80043e2:	89ab      	ldrh	r3, [r5, #12]
 80043e4:	071b      	lsls	r3, r3, #28
 80043e6:	d501      	bpl.n	80043ec <_vfiprintf_r+0x3c>
 80043e8:	692b      	ldr	r3, [r5, #16]
 80043ea:	b9eb      	cbnz	r3, 8004428 <_vfiprintf_r+0x78>
 80043ec:	4629      	mov	r1, r5
 80043ee:	4630      	mov	r0, r6
 80043f0:	f000 fb04 	bl	80049fc <__swsetup_r>
 80043f4:	b1c0      	cbz	r0, 8004428 <_vfiprintf_r+0x78>
 80043f6:	6e6b      	ldr	r3, [r5, #100]	; 0x64
 80043f8:	07dc      	lsls	r4, r3, #31
 80043fa:	d50e      	bpl.n	800441a <_vfiprintf_r+0x6a>
 80043fc:	f04f 30ff 	mov.w	r0, #4294967295
 8004400:	b01d      	add	sp, #116	; 0x74
 8004402:	e8bd 8ff0 	ldmia.w	sp!, {r4, r5, r6, r7, r8, r9, sl, fp, pc}
 8004406:	4b7b      	ldr	r3, [pc, #492]	; (80045f4 <_vfiprintf_r+0x244>)
 8004408:	429d      	cmp	r5, r3
 800440a:	d101      	bne.n	8004410 <_vfiprintf_r+0x60>
 800440c:	68b5      	ldr	r5, [r6, #8]
 800440e:	e7df      	b.n	80043d0 <_vfiprintf_r+0x20>
 8004410:	4b79      	ldr	r3, [pc, #484]	; (80045f8 <_vfiprintf_r+0x248>)
 8004412:	429d      	cmp	r5, r3
 8004414:	bf08      	it	eq
 8004416:	68f5      	ldreq	r5, [r6, #12]
 8004418:	e7da      	b.n	80043d0 <_vfiprintf_r+0x20>
 800441a:	89ab      	ldrh	r3, [r5, #12]
 800441c:	0598      	lsls	r0, r3, #22
 800441e:	d4ed      	bmi.n	80043fc <_vfiprintf_r+0x4c>
 8004420:	6da8      	ldr	r0, [r5, #88]	; 0x58
 8004422:	f000 fd1a 	bl	8004e5a <__retarget_lock_release_recursive>
 8004426:	e7e9      	b.n	80043fc <_vfiprintf_r+0x4c>
 8004428:	2300      	movs	r3, #0
 800442a:	9309      	str	r3, [sp, #36]	; 0x24
 800442c:	2320      	movs	r3, #32
 800442e:	f88d 3029 	strb.w	r3, [sp, #41]	; 0x29
 8004432:	f8cd 800c 	str.w	r8, [sp, #12]
 8004436:	2330      	movs	r3, #48	; 0x30
 8004438:	f8df 81c0 	ldr.w	r8, [pc, #448]	; 80045fc <_vfiprintf_r+0x24c>
 800443c:	f88d 302a 	strb.w	r3, [sp, #42]	; 0x2a
 8004440:	f04f 0901 	mov.w	r9, #1
 8004444:	4623      	mov	r3, r4
 8004446:	469a      	mov	sl, r3
 8004448:	f813 2b01 	ldrb.w	r2, [r3], #1
 800444c:	b10a      	cbz	r2, 8004452 <_vfiprintf_r+0xa2>
 800444e:	2a25      	cmp	r2, #37	; 0x25
 8004450:	d1f9      	bne.n	8004446 <_vfiprintf_r+0x96>
 8004452:	ebba 0b04 	subs.w	fp, sl, r4
 8004456:	d00b      	beq.n	8004470 <_vfiprintf_r+0xc0>
 8004458:	465b      	mov	r3, fp
 800445a:	4622      	mov	r2, r4
 800445c:	4629      	mov	r1, r5
 800445e:	4630      	mov	r0, r6
 8004460:	f7ff ff93 	bl	800438a <__sfputs_r>
 8004464:	3001      	adds	r0, #1
 8004466:	f000 80aa 	beq.w	80045be <_vfiprintf_r+0x20e>
 800446a:	9a09      	ldr	r2, [sp, #36]	; 0x24
 800446c:	445a      	add	r2, fp
 800446e:	9209      	str	r2, [sp, #36]	; 0x24
 8004470:	f89a 3000 	ldrb.w	r3, [sl]
 8004474:	2b00      	cmp	r3, #0
 8004476:	f000 80a2 	beq.w	80045be <_vfiprintf_r+0x20e>
 800447a:	2300      	movs	r3, #0
 800447c:	f04f 32ff 	mov.w	r2, #4294967295
 8004480:	e9cd 2305 	strd	r2, r3, [sp, #20]
 8004484:	f10a 0a01 	add.w	sl, sl, #1
 8004488:	9304      	str	r3, [sp, #16]
 800448a:	9307      	str	r3, [sp, #28]
 800448c:	f88d 3053 	strb.w	r3, [sp, #83]	; 0x53
 8004490:	931a      	str	r3, [sp, #104]	; 0x68
 8004492:	4654      	mov	r4, sl
 8004494:	2205      	movs	r2, #5
 8004496:	f814 1b01 	ldrb.w	r1, [r4], #1
 800449a:	4858      	ldr	r0, [pc, #352]	; (80045fc <_vfiprintf_r+0x24c>)
 800449c:	f7fb fea8 	bl	80001f0 <memchr>
 80044a0:	9a04      	ldr	r2, [sp, #16]
 80044a2:	b9d8      	cbnz	r0, 80044dc <_vfiprintf_r+0x12c>
 80044a4:	06d1      	lsls	r1, r2, #27
 80044a6:	bf44      	itt	mi
 80044a8:	2320      	movmi	r3, #32
 80044aa:	f88d 3053 	strbmi.w	r3, [sp, #83]	; 0x53
 80044ae:	0713      	lsls	r3, r2, #28
 80044b0:	bf44      	itt	mi
 80044b2:	232b      	movmi	r3, #43	; 0x2b
 80044b4:	f88d 3053 	strbmi.w	r3, [sp, #83]	; 0x53
 80044b8:	f89a 3000 	ldrb.w	r3, [sl]
 80044bc:	2b2a      	cmp	r3, #42	; 0x2a
 80044be:	d015      	beq.n	80044ec <_vfiprintf_r+0x13c>
 80044c0:	9a07      	ldr	r2, [sp, #28]
 80044c2:	4654      	mov	r4, sl
 80044c4:	2000      	movs	r0, #0
 80044c6:	f04f 0c0a 	mov.w	ip, #10
 80044ca:	4621      	mov	r1, r4
 80044cc:	f811 3b01 	ldrb.w	r3, [r1], #1
 80044d0:	3b30      	subs	r3, #48	; 0x30
 80044d2:	2b09      	cmp	r3, #9
 80044d4:	d94e      	bls.n	8004574 <_vfiprintf_r+0x1c4>
 80044d6:	b1b0      	cbz	r0, 8004506 <_vfiprintf_r+0x156>
 80044d8:	9207      	str	r2, [sp, #28]
 80044da:	e014      	b.n	8004506 <_vfiprintf_r+0x156>
 80044dc:	eba0 0308 	sub.w	r3, r0, r8
 80044e0:	fa09 f303 	lsl.w	r3, r9, r3
 80044e4:	4313      	orrs	r3, r2
 80044e6:	9304      	str	r3, [sp, #16]
 80044e8:	46a2      	mov	sl, r4
 80044ea:	e7d2      	b.n	8004492 <_vfiprintf_r+0xe2>
 80044ec:	9b03      	ldr	r3, [sp, #12]
 80044ee:	1d19      	adds	r1, r3, #4
 80044f0:	681b      	ldr	r3, [r3, #0]
 80044f2:	9103      	str	r1, [sp, #12]
 80044f4:	2b00      	cmp	r3, #0
 80044f6:	bfbb      	ittet	lt
 80044f8:	425b      	neglt	r3, r3
 80044fa:	f042 0202 	orrlt.w	r2, r2, #2
 80044fe:	9307      	strge	r3, [sp, #28]
 8004500:	9307      	strlt	r3, [sp, #28]
 8004502:	bfb8      	it	lt
 8004504:	9204      	strlt	r2, [sp, #16]
 8004506:	7823      	ldrb	r3, [r4, #0]
 8004508:	2b2e      	cmp	r3, #46	; 0x2e
 800450a:	d10c      	bne.n	8004526 <_vfiprintf_r+0x176>
 800450c:	7863      	ldrb	r3, [r4, #1]
 800450e:	2b2a      	cmp	r3, #42	; 0x2a
 8004510:	d135      	bne.n	800457e <_vfiprintf_r+0x1ce>
 8004512:	9b03      	ldr	r3, [sp, #12]
 8004514:	1d1a      	adds	r2, r3, #4
 8004516:	681b      	ldr	r3, [r3, #0]
 8004518:	9203      	str	r2, [sp, #12]
 800451a:	2b00      	cmp	r3, #0
 800451c:	bfb8      	it	lt
 800451e:	f04f 33ff 	movlt.w	r3, #4294967295
 8004522:	3402      	adds	r4, #2
 8004524:	9305      	str	r3, [sp, #20]
 8004526:	f8df a0e4 	ldr.w	sl, [pc, #228]	; 800460c <_vfiprintf_r+0x25c>
 800452a:	7821      	ldrb	r1, [r4, #0]
 800452c:	2203      	movs	r2, #3
 800452e:	4650      	mov	r0, sl
 8004530:	f7fb fe5e 	bl	80001f0 <memchr>
 8004534:	b140      	cbz	r0, 8004548 <_vfiprintf_r+0x198>
 8004536:	2340      	movs	r3, #64	; 0x40
 8004538:	eba0 000a 	sub.w	r0, r0, sl
 800453c:	fa03 f000 	lsl.w	r0, r3, r0
 8004540:	9b04      	ldr	r3, [sp, #16]
 8004542:	4303      	orrs	r3, r0
 8004544:	3401      	adds	r4, #1
 8004546:	9304      	str	r3, [sp, #16]
 8004548:	f814 1b01 	ldrb.w	r1, [r4], #1
 800454c:	482c      	ldr	r0, [pc, #176]	; (8004600 <_vfiprintf_r+0x250>)
 800454e:	f88d 1028 	strb.w	r1, [sp, #40]	; 0x28
 8004552:	2206      	movs	r2, #6
 8004554:	f7fb fe4c 	bl	80001f0 <memchr>
 8004558:	2800      	cmp	r0, #0
 800455a:	d03f      	beq.n	80045dc <_vfiprintf_r+0x22c>
 800455c:	4b29      	ldr	r3, [pc, #164]	; (8004604 <_vfiprintf_r+0x254>)
 800455e:	bb1b      	cbnz	r3, 80045a8 <_vfiprintf_r+0x1f8>
 8004560:	9b03      	ldr	r3, [sp, #12]
 8004562:	3307      	adds	r3, #7
 8004564:	f023 0307 	bic.w	r3, r3, #7
 8004568:	3308      	adds	r3, #8
 800456a:	9303      	str	r3, [sp, #12]
 800456c:	9b09      	ldr	r3, [sp, #36]	; 0x24
 800456e:	443b      	add	r3, r7
 8004570:	9309      	str	r3, [sp, #36]	; 0x24
 8004572:	e767      	b.n	8004444 <_vfiprintf_r+0x94>
 8004574:	fb0c 3202 	mla	r2, ip, r2, r3
 8004578:	460c      	mov	r4, r1
 800457a:	2001      	movs	r0, #1
 800457c:	e7a5      	b.n	80044ca <_vfiprintf_r+0x11a>
 800457e:	2300      	movs	r3, #0
 8004580:	3401      	adds	r4, #1
 8004582:	9305      	str	r3, [sp, #20]
 8004584:	4619      	mov	r1, r3
 8004586:	f04f 0c0a 	mov.w	ip, #10
 800458a:	4620      	mov	r0, r4
 800458c:	f810 2b01 	ldrb.w	r2, [r0], #1
 8004590:	3a30      	subs	r2, #48	; 0x30
 8004592:	2a09      	cmp	r2, #9
 8004594:	d903      	bls.n	800459e <_vfiprintf_r+0x1ee>
 8004596:	2b00      	cmp	r3, #0
 8004598:	d0c5      	beq.n	8004526 <_vfiprintf_r+0x176>
 800459a:	9105      	str	r1, [sp, #20]
 800459c:	e7c3      	b.n	8004526 <_vfiprintf_r+0x176>
 800459e:	fb0c 2101 	mla	r1, ip, r1, r2
 80045a2:	4604      	mov	r4, r0
 80045a4:	2301      	movs	r3, #1
 80045a6:	e7f0      	b.n	800458a <_vfiprintf_r+0x1da>
 80045a8:	ab03      	add	r3, sp, #12
 80045aa:	9300      	str	r3, [sp, #0]
 80045ac:	462a      	mov	r2, r5
 80045ae:	4b16      	ldr	r3, [pc, #88]	; (8004608 <_vfiprintf_r+0x258>)
 80045b0:	a904      	add	r1, sp, #16
 80045b2:	4630      	mov	r0, r6
 80045b4:	f3af 8000 	nop.w
 80045b8:	4607      	mov	r7, r0
 80045ba:	1c78      	adds	r0, r7, #1
 80045bc:	d1d6      	bne.n	800456c <_vfiprintf_r+0x1bc>
 80045be:	6e6b      	ldr	r3, [r5, #100]	; 0x64
 80045c0:	07d9      	lsls	r1, r3, #31
 80045c2:	d405      	bmi.n	80045d0 <_vfiprintf_r+0x220>
 80045c4:	89ab      	ldrh	r3, [r5, #12]
 80045c6:	059a      	lsls	r2, r3, #22
 80045c8:	d402      	bmi.n	80045d0 <_vfiprintf_r+0x220>
 80045ca:	6da8      	ldr	r0, [r5, #88]	; 0x58
 80045cc:	f000 fc45 	bl	8004e5a <__retarget_lock_release_recursive>
 80045d0:	89ab      	ldrh	r3, [r5, #12]
 80045d2:	065b      	lsls	r3, r3, #25
 80045d4:	f53f af12 	bmi.w	80043fc <_vfiprintf_r+0x4c>
 80045d8:	9809      	ldr	r0, [sp, #36]	; 0x24
 80045da:	e711      	b.n	8004400 <_vfiprintf_r+0x50>
 80045dc:	ab03      	add	r3, sp, #12
 80045de:	9300      	str	r3, [sp, #0]
 80045e0:	462a      	mov	r2, r5
 80045e2:	4b09      	ldr	r3, [pc, #36]	; (8004608 <_vfiprintf_r+0x258>)
 80045e4:	a904      	add	r1, sp, #16
 80045e6:	4630      	mov	r0, r6
 80045e8:	f000 f880 	bl	80046ec <_printf_i>
 80045ec:	e7e4      	b.n	80045b8 <_vfiprintf_r+0x208>
 80045ee:	bf00      	nop
 80045f0:	0800604c 	.word	0x0800604c
 80045f4:	0800606c 	.word	0x0800606c
 80045f8:	0800602c 	.word	0x0800602c
 80045fc:	08005ff7 	.word	0x08005ff7
 8004600:	08006001 	.word	0x08006001
 8004604:	00000000 	.word	0x00000000
 8004608:	0800438b 	.word	0x0800438b
 800460c:	08005ffd 	.word	0x08005ffd

08004610 <_printf_common>:
 8004610:	e92d 47f0 	stmdb	sp!, {r4, r5, r6, r7, r8, r9, sl, lr}
 8004614:	4616      	mov	r6, r2
 8004616:	4699      	mov	r9, r3
 8004618:	688a      	ldr	r2, [r1, #8]
 800461a:	690b      	ldr	r3, [r1, #16]
 800461c:	f8dd 8020 	ldr.w	r8, [sp, #32]
 8004620:	4293      	cmp	r3, r2
 8004622:	bfb8      	it	lt
 8004624:	4613      	movlt	r3, r2
 8004626:	6033      	str	r3, [r6, #0]
 8004628:	f891 2043 	ldrb.w	r2, [r1, #67]	; 0x43
 800462c:	4607      	mov	r7, r0
 800462e:	460c      	mov	r4, r1
 8004630:	b10a      	cbz	r2, 8004636 <_printf_common+0x26>
 8004632:	3301      	adds	r3, #1
 8004634:	6033      	str	r3, [r6, #0]
 8004636:	6823      	ldr	r3, [r4, #0]
 8004638:	0699      	lsls	r1, r3, #26
 800463a:	bf42      	ittt	mi
 800463c:	6833      	ldrmi	r3, [r6, #0]
 800463e:	3302      	addmi	r3, #2
 8004640:	6033      	strmi	r3, [r6, #0]
 8004642:	6825      	ldr	r5, [r4, #0]
 8004644:	f015 0506 	ands.w	r5, r5, #6
 8004648:	d106      	bne.n	8004658 <_printf_common+0x48>
 800464a:	f104 0a19 	add.w	sl, r4, #25
 800464e:	68e3      	ldr	r3, [r4, #12]
 8004650:	6832      	ldr	r2, [r6, #0]
 8004652:	1a9b      	subs	r3, r3, r2
 8004654:	42ab      	cmp	r3, r5
 8004656:	dc26      	bgt.n	80046a6 <_printf_common+0x96>
 8004658:	f894 2043 	ldrb.w	r2, [r4, #67]	; 0x43
 800465c:	1e13      	subs	r3, r2, #0
 800465e:	6822      	ldr	r2, [r4, #0]
 8004660:	bf18      	it	ne
 8004662:	2301      	movne	r3, #1
 8004664:	0692      	lsls	r2, r2, #26
 8004666:	d42b      	bmi.n	80046c0 <_printf_common+0xb0>
 8004668:	f104 0243 	add.w	r2, r4, #67	; 0x43
 800466c:	4649      	mov	r1, r9
 800466e:	4638      	mov	r0, r7
 8004670:	47c0      	blx	r8
 8004672:	3001      	adds	r0, #1
 8004674:	d01e      	beq.n	80046b4 <_printf_common+0xa4>
 8004676:	6823      	ldr	r3, [r4, #0]
 8004678:	68e5      	ldr	r5, [r4, #12]
 800467a:	6832      	ldr	r2, [r6, #0]
 800467c:	f003 0306 	and.w	r3, r3, #6
 8004680:	2b04      	cmp	r3, #4
 8004682:	bf08      	it	eq
 8004684:	1aad      	subeq	r5, r5, r2
 8004686:	68a3      	ldr	r3, [r4, #8]
 8004688:	6922      	ldr	r2, [r4, #16]
 800468a:	bf0c      	ite	eq
 800468c:	ea25 75e5 	biceq.w	r5, r5, r5, asr #31
 8004690:	2500      	movne	r5, #0
 8004692:	4293      	cmp	r3, r2
 8004694:	bfc4      	itt	gt
 8004696:	1a9b      	subgt	r3, r3, r2
 8004698:	18ed      	addgt	r5, r5, r3
 800469a:	2600      	movs	r6, #0
 800469c:	341a      	adds	r4, #26
 800469e:	42b5      	cmp	r5, r6
 80046a0:	d11a      	bne.n	80046d8 <_printf_common+0xc8>
 80046a2:	2000      	movs	r0, #0
 80046a4:	e008      	b.n	80046b8 <_printf_common+0xa8>
 80046a6:	2301      	movs	r3, #1
 80046a8:	4652      	mov	r2, sl
 80046aa:	4649      	mov	r1, r9
 80046ac:	4638      	mov	r0, r7
 80046ae:	47c0      	blx	r8
 80046b0:	3001      	adds	r0, #1
 80046b2:	d103      	bne.n	80046bc <_printf_common+0xac>
 80046b4:	f04f 30ff 	mov.w	r0, #4294967295
 80046b8:	e8bd 87f0 	ldmia.w	sp!, {r4, r5, r6, r7, r8, r9, sl, pc}
 80046bc:	3501      	adds	r5, #1
 80046be:	e7c6      	b.n	800464e <_printf_common+0x3e>
 80046c0:	18e1      	adds	r1, r4, r3
 80046c2:	1c5a      	adds	r2, r3, #1
 80046c4:	2030      	movs	r0, #48	; 0x30
 80046c6:	f881 0043 	strb.w	r0, [r1, #67]	; 0x43
 80046ca:	4422      	add	r2, r4
 80046cc:	f894 1045 	ldrb.w	r1, [r4, #69]	; 0x45
 80046d0:	f882 1043 	strb.w	r1, [r2, #67]	; 0x43
 80046d4:	3302      	adds	r3, #2
 80046d6:	e7c7      	b.n	8004668 <_printf_common+0x58>
 80046d8:	2301      	movs	r3, #1
 80046da:	4622      	mov	r2, r4
 80046dc:	4649      	mov	r1, r9
 80046de:	4638      	mov	r0, r7
 80046e0:	47c0      	blx	r8
 80046e2:	3001      	adds	r0, #1
 80046e4:	d0e6      	beq.n	80046b4 <_printf_common+0xa4>
 80046e6:	3601      	adds	r6, #1
 80046e8:	e7d9      	b.n	800469e <_printf_common+0x8e>
	...

080046ec <_printf_i>:
 80046ec:	e92d 47ff 	stmdb	sp!, {r0, r1, r2, r3, r4, r5, r6, r7, r8, r9, sl, lr}
 80046f0:	7e0f      	ldrb	r7, [r1, #24]
 80046f2:	9d0c      	ldr	r5, [sp, #48]	; 0x30
 80046f4:	2f78      	cmp	r7, #120	; 0x78
 80046f6:	4691      	mov	r9, r2
 80046f8:	4680      	mov	r8, r0
 80046fa:	460c      	mov	r4, r1
 80046fc:	469a      	mov	sl, r3
 80046fe:	f101 0243 	add.w	r2, r1, #67	; 0x43
 8004702:	d807      	bhi.n	8004714 <_printf_i+0x28>
 8004704:	2f62      	cmp	r7, #98	; 0x62
 8004706:	d80a      	bhi.n	800471e <_printf_i+0x32>
 8004708:	2f00      	cmp	r7, #0
 800470a:	f000 80d8 	beq.w	80048be <_printf_i+0x1d2>
 800470e:	2f58      	cmp	r7, #88	; 0x58
 8004710:	f000 80a3 	beq.w	800485a <_printf_i+0x16e>
 8004714:	f104 0542 	add.w	r5, r4, #66	; 0x42
 8004718:	f884 7042 	strb.w	r7, [r4, #66]	; 0x42
 800471c:	e03a      	b.n	8004794 <_printf_i+0xa8>
 800471e:	f1a7 0363 	sub.w	r3, r7, #99	; 0x63
 8004722:	2b15      	cmp	r3, #21
 8004724:	d8f6      	bhi.n	8004714 <_printf_i+0x28>
 8004726:	a101      	add	r1, pc, #4	; (adr r1, 800472c <_printf_i+0x40>)
 8004728:	f851 f023 	ldr.w	pc, [r1, r3, lsl #2]
 800472c:	08004785 	.word	0x08004785
 8004730:	08004799 	.word	0x08004799
 8004734:	08004715 	.word	0x08004715
 8004738:	08004715 	.word	0x08004715
 800473c:	08004715 	.word	0x08004715
 8004740:	08004715 	.word	0x08004715
 8004744:	08004799 	.word	0x08004799
 8004748:	08004715 	.word	0x08004715
 800474c:	08004715 	.word	0x08004715
 8004750:	08004715 	.word	0x08004715
 8004754:	08004715 	.word	0x08004715
 8004758:	080048a5 	.word	0x080048a5
 800475c:	080047c9 	.word	0x080047c9
 8004760:	08004887 	.word	0x08004887
 8004764:	08004715 	.word	0x08004715
 8004768:	08004715 	.word	0x08004715
 800476c:	080048c7 	.word	0x080048c7
 8004770:	08004715 	.word	0x08004715
 8004774:	080047c9 	.word	0x080047c9
 8004778:	08004715 	.word	0x08004715
 800477c:	08004715 	.word	0x08004715
 8004780:	0800488f 	.word	0x0800488f
 8004784:	682b      	ldr	r3, [r5, #0]
 8004786:	1d1a      	adds	r2, r3, #4
 8004788:	681b      	ldr	r3, [r3, #0]
 800478a:	602a      	str	r2, [r5, #0]
 800478c:	f104 0542 	add.w	r5, r4, #66	; 0x42
 8004790:	f884 3042 	strb.w	r3, [r4, #66]	; 0x42
 8004794:	2301      	movs	r3, #1
 8004796:	e0a3      	b.n	80048e0 <_printf_i+0x1f4>
 8004798:	6820      	ldr	r0, [r4, #0]
 800479a:	6829      	ldr	r1, [r5, #0]
 800479c:	0606      	lsls	r6, r0, #24
 800479e:	f101 0304 	add.w	r3, r1, #4
 80047a2:	d50a      	bpl.n	80047ba <_printf_i+0xce>
 80047a4:	680e      	ldr	r6, [r1, #0]
 80047a6:	602b      	str	r3, [r5, #0]
 80047a8:	2e00      	cmp	r6, #0
 80047aa:	da03      	bge.n	80047b4 <_printf_i+0xc8>
 80047ac:	232d      	movs	r3, #45	; 0x2d
 80047ae:	4276      	negs	r6, r6
 80047b0:	f884 3043 	strb.w	r3, [r4, #67]	; 0x43
 80047b4:	485e      	ldr	r0, [pc, #376]	; (8004930 <_printf_i+0x244>)
 80047b6:	230a      	movs	r3, #10
 80047b8:	e019      	b.n	80047ee <_printf_i+0x102>
 80047ba:	680e      	ldr	r6, [r1, #0]
 80047bc:	602b      	str	r3, [r5, #0]
 80047be:	f010 0f40 	tst.w	r0, #64	; 0x40
 80047c2:	bf18      	it	ne
 80047c4:	b236      	sxthne	r6, r6
 80047c6:	e7ef      	b.n	80047a8 <_printf_i+0xbc>
 80047c8:	682b      	ldr	r3, [r5, #0]
 80047ca:	6820      	ldr	r0, [r4, #0]
 80047cc:	1d19      	adds	r1, r3, #4
 80047ce:	6029      	str	r1, [r5, #0]
 80047d0:	0601      	lsls	r1, r0, #24
 80047d2:	d501      	bpl.n	80047d8 <_printf_i+0xec>
 80047d4:	681e      	ldr	r6, [r3, #0]
 80047d6:	e002      	b.n	80047de <_printf_i+0xf2>
 80047d8:	0646      	lsls	r6, r0, #25
 80047da:	d5fb      	bpl.n	80047d4 <_printf_i+0xe8>
 80047dc:	881e      	ldrh	r6, [r3, #0]
 80047de:	4854      	ldr	r0, [pc, #336]	; (8004930 <_printf_i+0x244>)
 80047e0:	2f6f      	cmp	r7, #111	; 0x6f
 80047e2:	bf0c      	ite	eq
 80047e4:	2308      	moveq	r3, #8
 80047e6:	230a      	movne	r3, #10
 80047e8:	2100      	movs	r1, #0
 80047ea:	f884 1043 	strb.w	r1, [r4, #67]	; 0x43
 80047ee:	6865      	ldr	r5, [r4, #4]
 80047f0:	60a5      	str	r5, [r4, #8]
 80047f2:	2d00      	cmp	r5, #0
 80047f4:	bfa2      	ittt	ge
 80047f6:	6821      	ldrge	r1, [r4, #0]
 80047f8:	f021 0104 	bicge.w	r1, r1, #4
 80047fc:	6021      	strge	r1, [r4, #0]
 80047fe:	b90e      	cbnz	r6, 8004804 <_printf_i+0x118>
 8004800:	2d00      	cmp	r5, #0
 8004802:	d04d      	beq.n	80048a0 <_printf_i+0x1b4>
 8004804:	4615      	mov	r5, r2
 8004806:	fbb6 f1f3 	udiv	r1, r6, r3
 800480a:	fb03 6711 	mls	r7, r3, r1, r6
 800480e:	5dc7      	ldrb	r7, [r0, r7]
 8004810:	f805 7d01 	strb.w	r7, [r5, #-1]!
 8004814:	4637      	mov	r7, r6
 8004816:	42bb      	cmp	r3, r7
 8004818:	460e      	mov	r6, r1
 800481a:	d9f4      	bls.n	8004806 <_printf_i+0x11a>
 800481c:	2b08      	cmp	r3, #8
 800481e:	d10b      	bne.n	8004838 <_printf_i+0x14c>
 8004820:	6823      	ldr	r3, [r4, #0]
 8004822:	07de      	lsls	r6, r3, #31
 8004824:	d508      	bpl.n	8004838 <_printf_i+0x14c>
 8004826:	6923      	ldr	r3, [r4, #16]
 8004828:	6861      	ldr	r1, [r4, #4]
 800482a:	4299      	cmp	r1, r3
 800482c:	bfde      	ittt	le
 800482e:	2330      	movle	r3, #48	; 0x30
 8004830:	f805 3c01 	strble.w	r3, [r5, #-1]
 8004834:	f105 35ff 	addle.w	r5, r5, #4294967295
 8004838:	1b52      	subs	r2, r2, r5
 800483a:	6122      	str	r2, [r4, #16]
 800483c:	f8cd a000 	str.w	sl, [sp]
 8004840:	464b      	mov	r3, r9
 8004842:	aa03      	add	r2, sp, #12
 8004844:	4621      	mov	r1, r4
 8004846:	4640      	mov	r0, r8
 8004848:	f7ff fee2 	bl	8004610 <_printf_common>
 800484c:	3001      	adds	r0, #1
 800484e:	d14c      	bne.n	80048ea <_printf_i+0x1fe>
 8004850:	f04f 30ff 	mov.w	r0, #4294967295
 8004854:	b004      	add	sp, #16
 8004856:	e8bd 87f0 	ldmia.w	sp!, {r4, r5, r6, r7, r8, r9, sl, pc}
 800485a:	4835      	ldr	r0, [pc, #212]	; (8004930 <_printf_i+0x244>)
 800485c:	f881 7045 	strb.w	r7, [r1, #69]	; 0x45
 8004860:	6829      	ldr	r1, [r5, #0]
 8004862:	6823      	ldr	r3, [r4, #0]
 8004864:	f851 6b04 	ldr.w	r6, [r1], #4
 8004868:	6029      	str	r1, [r5, #0]
 800486a:	061d      	lsls	r5, r3, #24
 800486c:	d514      	bpl.n	8004898 <_printf_i+0x1ac>
 800486e:	07df      	lsls	r7, r3, #31
 8004870:	bf44      	itt	mi
 8004872:	f043 0320 	orrmi.w	r3, r3, #32
 8004876:	6023      	strmi	r3, [r4, #0]
 8004878:	b91e      	cbnz	r6, 8004882 <_printf_i+0x196>
 800487a:	6823      	ldr	r3, [r4, #0]
 800487c:	f023 0320 	bic.w	r3, r3, #32
 8004880:	6023      	str	r3, [r4, #0]
 8004882:	2310      	movs	r3, #16
 8004884:	e7b0      	b.n	80047e8 <_printf_i+0xfc>
 8004886:	6823      	ldr	r3, [r4, #0]
 8004888:	f043 0320 	orr.w	r3, r3, #32
 800488c:	6023      	str	r3, [r4, #0]
 800488e:	2378      	movs	r3, #120	; 0x78
 8004890:	4828      	ldr	r0, [pc, #160]	; (8004934 <_printf_i+0x248>)
 8004892:	f884 3045 	strb.w	r3, [r4, #69]	; 0x45
 8004896:	e7e3      	b.n	8004860 <_printf_i+0x174>
 8004898:	0659      	lsls	r1, r3, #25
 800489a:	bf48      	it	mi
 800489c:	b2b6      	uxthmi	r6, r6
 800489e:	e7e6      	b.n	800486e <_printf_i+0x182>
 80048a0:	4615      	mov	r5, r2
 80048a2:	e7bb      	b.n	800481c <_printf_i+0x130>
 80048a4:	682b      	ldr	r3, [r5, #0]
 80048a6:	6826      	ldr	r6, [r4, #0]
 80048a8:	6961      	ldr	r1, [r4, #20]
 80048aa:	1d18      	adds	r0, r3, #4
 80048ac:	6028      	str	r0, [r5, #0]
 80048ae:	0635      	lsls	r5, r6, #24
 80048b0:	681b      	ldr	r3, [r3, #0]
 80048b2:	d501      	bpl.n	80048b8 <_printf_i+0x1cc>
 80048b4:	6019      	str	r1, [r3, #0]
 80048b6:	e002      	b.n	80048be <_printf_i+0x1d2>
 80048b8:	0670      	lsls	r0, r6, #25
 80048ba:	d5fb      	bpl.n	80048b4 <_printf_i+0x1c8>
 80048bc:	8019      	strh	r1, [r3, #0]
 80048be:	2300      	movs	r3, #0
 80048c0:	6123      	str	r3, [r4, #16]
 80048c2:	4615      	mov	r5, r2
 80048c4:	e7ba      	b.n	800483c <_printf_i+0x150>
 80048c6:	682b      	ldr	r3, [r5, #0]
 80048c8:	1d1a      	adds	r2, r3, #4
 80048ca:	602a      	str	r2, [r5, #0]
 80048cc:	681d      	ldr	r5, [r3, #0]
 80048ce:	6862      	ldr	r2, [r4, #4]
 80048d0:	2100      	movs	r1, #0
 80048d2:	4628      	mov	r0, r5
 80048d4:	f7fb fc8c 	bl	80001f0 <memchr>
 80048d8:	b108      	cbz	r0, 80048de <_printf_i+0x1f2>
 80048da:	1b40      	subs	r0, r0, r5
 80048dc:	6060      	str	r0, [r4, #4]
 80048de:	6863      	ldr	r3, [r4, #4]
 80048e0:	6123      	str	r3, [r4, #16]
 80048e2:	2300      	movs	r3, #0
 80048e4:	f884 3043 	strb.w	r3, [r4, #67]	; 0x43
 80048e8:	e7a8      	b.n	800483c <_printf_i+0x150>
 80048ea:	6923      	ldr	r3, [r4, #16]
 80048ec:	462a      	mov	r2, r5
 80048ee:	4649      	mov	r1, r9
 80048f0:	4640      	mov	r0, r8
 80048f2:	47d0      	blx	sl
 80048f4:	3001      	adds	r0, #1
 80048f6:	d0ab      	beq.n	8004850 <_printf_i+0x164>
 80048f8:	6823      	ldr	r3, [r4, #0]
 80048fa:	079b      	lsls	r3, r3, #30
 80048fc:	d413      	bmi.n	8004926 <_printf_i+0x23a>
 80048fe:	68e0      	ldr	r0, [r4, #12]
 8004900:	9b03      	ldr	r3, [sp, #12]
 8004902:	4298      	cmp	r0, r3
 8004904:	bfb8      	it	lt
 8004906:	4618      	movlt	r0, r3
 8004908:	e7a4      	b.n	8004854 <_printf_i+0x168>
 800490a:	2301      	movs	r3, #1
 800490c:	4632      	mov	r2, r6
 800490e:	4649      	mov	r1, r9
 8004910:	4640      	mov	r0, r8
 8004912:	47d0      	blx	sl
 8004914:	3001      	adds	r0, #1
 8004916:	d09b      	beq.n	8004850 <_printf_i+0x164>
 8004918:	3501      	adds	r5, #1
 800491a:	68e3      	ldr	r3, [r4, #12]
 800491c:	9903      	ldr	r1, [sp, #12]
 800491e:	1a5b      	subs	r3, r3, r1
 8004920:	42ab      	cmp	r3, r5
 8004922:	dcf2      	bgt.n	800490a <_printf_i+0x21e>
 8004924:	e7eb      	b.n	80048fe <_printf_i+0x212>
 8004926:	2500      	movs	r5, #0
 8004928:	f104 0619 	add.w	r6, r4, #25
 800492c:	e7f5      	b.n	800491a <_printf_i+0x22e>
 800492e:	bf00      	nop
 8004930:	08006008 	.word	0x08006008
 8004934:	08006019 	.word	0x08006019

08004938 <_sbrk_r>:
 8004938:	b538      	push	{r3, r4, r5, lr}
 800493a:	4d06      	ldr	r5, [pc, #24]	; (8004954 <_sbrk_r+0x1c>)
 800493c:	2300      	movs	r3, #0
 800493e:	4604      	mov	r4, r0
 8004940:	4608      	mov	r0, r1
 8004942:	602b      	str	r3, [r5, #0]
 8004944:	f7fc f9ea 	bl	8000d1c <_sbrk>
 8004948:	1c43      	adds	r3, r0, #1
 800494a:	d102      	bne.n	8004952 <_sbrk_r+0x1a>
 800494c:	682b      	ldr	r3, [r5, #0]
 800494e:	b103      	cbz	r3, 8004952 <_sbrk_r+0x1a>
 8004950:	6023      	str	r3, [r4, #0]
 8004952:	bd38      	pop	{r3, r4, r5, pc}
 8004954:	20000164 	.word	0x20000164

08004958 <__swbuf_r>:
 8004958:	b5f8      	push	{r3, r4, r5, r6, r7, lr}
 800495a:	460e      	mov	r6, r1
 800495c:	4614      	mov	r4, r2
 800495e:	4605      	mov	r5, r0
 8004960:	b118      	cbz	r0, 800496a <__swbuf_r+0x12>
 8004962:	6983      	ldr	r3, [r0, #24]
 8004964:	b90b      	cbnz	r3, 800496a <__swbuf_r+0x12>
 8004966:	f000 f9d9 	bl	8004d1c <__sinit>
 800496a:	4b21      	ldr	r3, [pc, #132]	; (80049f0 <__swbuf_r+0x98>)
 800496c:	429c      	cmp	r4, r3
 800496e:	d12b      	bne.n	80049c8 <__swbuf_r+0x70>
 8004970:	686c      	ldr	r4, [r5, #4]
 8004972:	69a3      	ldr	r3, [r4, #24]
 8004974:	60a3      	str	r3, [r4, #8]
 8004976:	89a3      	ldrh	r3, [r4, #12]
 8004978:	071a      	lsls	r2, r3, #28
 800497a:	d52f      	bpl.n	80049dc <__swbuf_r+0x84>
 800497c:	6923      	ldr	r3, [r4, #16]
 800497e:	b36b      	cbz	r3, 80049dc <__swbuf_r+0x84>
 8004980:	6923      	ldr	r3, [r4, #16]
 8004982:	6820      	ldr	r0, [r4, #0]
 8004984:	1ac0      	subs	r0, r0, r3
 8004986:	6963      	ldr	r3, [r4, #20]
 8004988:	b2f6      	uxtb	r6, r6
 800498a:	4283      	cmp	r3, r0
 800498c:	4637      	mov	r7, r6
 800498e:	dc04      	bgt.n	800499a <__swbuf_r+0x42>
 8004990:	4621      	mov	r1, r4
 8004992:	4628      	mov	r0, r5
 8004994:	f000 f92e 	bl	8004bf4 <_fflush_r>
 8004998:	bb30      	cbnz	r0, 80049e8 <__swbuf_r+0x90>
 800499a:	68a3      	ldr	r3, [r4, #8]
 800499c:	3b01      	subs	r3, #1
 800499e:	60a3      	str	r3, [r4, #8]
 80049a0:	6823      	ldr	r3, [r4, #0]
 80049a2:	1c5a      	adds	r2, r3, #1
 80049a4:	6022      	str	r2, [r4, #0]
 80049a6:	701e      	strb	r6, [r3, #0]
 80049a8:	6963      	ldr	r3, [r4, #20]
 80049aa:	3001      	adds	r0, #1
 80049ac:	4283      	cmp	r3, r0
 80049ae:	d004      	beq.n	80049ba <__swbuf_r+0x62>
 80049b0:	89a3      	ldrh	r3, [r4, #12]
 80049b2:	07db      	lsls	r3, r3, #31
 80049b4:	d506      	bpl.n	80049c4 <__swbuf_r+0x6c>
 80049b6:	2e0a      	cmp	r6, #10
 80049b8:	d104      	bne.n	80049c4 <__swbuf_r+0x6c>
 80049ba:	4621      	mov	r1, r4
 80049bc:	4628      	mov	r0, r5
 80049be:	f000 f919 	bl	8004bf4 <_fflush_r>
 80049c2:	b988      	cbnz	r0, 80049e8 <__swbuf_r+0x90>
 80049c4:	4638      	mov	r0, r7
 80049c6:	bdf8      	pop	{r3, r4, r5, r6, r7, pc}
 80049c8:	4b0a      	ldr	r3, [pc, #40]	; (80049f4 <__swbuf_r+0x9c>)
 80049ca:	429c      	cmp	r4, r3
 80049cc:	d101      	bne.n	80049d2 <__swbuf_r+0x7a>
 80049ce:	68ac      	ldr	r4, [r5, #8]
 80049d0:	e7cf      	b.n	8004972 <__swbuf_r+0x1a>
 80049d2:	4b09      	ldr	r3, [pc, #36]	; (80049f8 <__swbuf_r+0xa0>)
 80049d4:	429c      	cmp	r4, r3
 80049d6:	bf08      	it	eq
 80049d8:	68ec      	ldreq	r4, [r5, #12]
 80049da:	e7ca      	b.n	8004972 <__swbuf_r+0x1a>
 80049dc:	4621      	mov	r1, r4
 80049de:	4628      	mov	r0, r5
 80049e0:	f000 f80c 	bl	80049fc <__swsetup_r>
 80049e4:	2800      	cmp	r0, #0
 80049e6:	d0cb      	beq.n	8004980 <__swbuf_r+0x28>
 80049e8:	f04f 37ff 	mov.w	r7, #4294967295
 80049ec:	e7ea      	b.n	80049c4 <__swbuf_r+0x6c>
 80049ee:	bf00      	nop
 80049f0:	0800604c 	.word	0x0800604c
 80049f4:	0800606c 	.word	0x0800606c
 80049f8:	0800602c 	.word	0x0800602c

080049fc <__swsetup_r>:
 80049fc:	4b32      	ldr	r3, [pc, #200]	; (8004ac8 <__swsetup_r+0xcc>)
 80049fe:	b570      	push	{r4, r5, r6, lr}
 8004a00:	681d      	ldr	r5, [r3, #0]
 8004a02:	4606      	mov	r6, r0
 8004a04:	460c      	mov	r4, r1
 8004a06:	b125      	cbz	r5, 8004a12 <__swsetup_r+0x16>
 8004a08:	69ab      	ldr	r3, [r5, #24]
 8004a0a:	b913      	cbnz	r3, 8004a12 <__swsetup_r+0x16>
 8004a0c:	4628      	mov	r0, r5
 8004a0e:	f000 f985 	bl	8004d1c <__sinit>
 8004a12:	4b2e      	ldr	r3, [pc, #184]	; (8004acc <__swsetup_r+0xd0>)
 8004a14:	429c      	cmp	r4, r3
 8004a16:	d10f      	bne.n	8004a38 <__swsetup_r+0x3c>
 8004a18:	686c      	ldr	r4, [r5, #4]
 8004a1a:	89a3      	ldrh	r3, [r4, #12]
 8004a1c:	f9b4 200c 	ldrsh.w	r2, [r4, #12]
 8004a20:	0719      	lsls	r1, r3, #28
 8004a22:	d42c      	bmi.n	8004a7e <__swsetup_r+0x82>
 8004a24:	06dd      	lsls	r5, r3, #27
 8004a26:	d411      	bmi.n	8004a4c <__swsetup_r+0x50>
 8004a28:	2309      	movs	r3, #9
 8004a2a:	6033      	str	r3, [r6, #0]
 8004a2c:	f042 0340 	orr.w	r3, r2, #64	; 0x40
 8004a30:	81a3      	strh	r3, [r4, #12]
 8004a32:	f04f 30ff 	mov.w	r0, #4294967295
 8004a36:	e03e      	b.n	8004ab6 <__swsetup_r+0xba>
 8004a38:	4b25      	ldr	r3, [pc, #148]	; (8004ad0 <__swsetup_r+0xd4>)
 8004a3a:	429c      	cmp	r4, r3
 8004a3c:	d101      	bne.n	8004a42 <__swsetup_r+0x46>
 8004a3e:	68ac      	ldr	r4, [r5, #8]
 8004a40:	e7eb      	b.n	8004a1a <__swsetup_r+0x1e>
 8004a42:	4b24      	ldr	r3, [pc, #144]	; (8004ad4 <__swsetup_r+0xd8>)
 8004a44:	429c      	cmp	r4, r3
 8004a46:	bf08      	it	eq
 8004a48:	68ec      	ldreq	r4, [r5, #12]
 8004a4a:	e7e6      	b.n	8004a1a <__swsetup_r+0x1e>
 8004a4c:	0758      	lsls	r0, r3, #29
 8004a4e:	d512      	bpl.n	8004a76 <__swsetup_r+0x7a>
 8004a50:	6b61      	ldr	r1, [r4, #52]	; 0x34
 8004a52:	b141      	cbz	r1, 8004a66 <__swsetup_r+0x6a>
 8004a54:	f104 0344 	add.w	r3, r4, #68	; 0x44
 8004a58:	4299      	cmp	r1, r3
 8004a5a:	d002      	beq.n	8004a62 <__swsetup_r+0x66>
 8004a5c:	4630      	mov	r0, r6
 8004a5e:	f7ff fb9d 	bl	800419c <_free_r>
 8004a62:	2300      	movs	r3, #0
 8004a64:	6363      	str	r3, [r4, #52]	; 0x34
 8004a66:	89a3      	ldrh	r3, [r4, #12]
 8004a68:	f023 0324 	bic.w	r3, r3, #36	; 0x24
 8004a6c:	81a3      	strh	r3, [r4, #12]
 8004a6e:	2300      	movs	r3, #0
 8004a70:	6063      	str	r3, [r4, #4]
 8004a72:	6923      	ldr	r3, [r4, #16]
 8004a74:	6023      	str	r3, [r4, #0]
 8004a76:	89a3      	ldrh	r3, [r4, #12]
 8004a78:	f043 0308 	orr.w	r3, r3, #8
 8004a7c:	81a3      	strh	r3, [r4, #12]
 8004a7e:	6923      	ldr	r3, [r4, #16]
 8004a80:	b94b      	cbnz	r3, 8004a96 <__swsetup_r+0x9a>
 8004a82:	89a3      	ldrh	r3, [r4, #12]
 8004a84:	f403 7320 	and.w	r3, r3, #640	; 0x280
 8004a88:	f5b3 7f00 	cmp.w	r3, #512	; 0x200
 8004a8c:	d003      	beq.n	8004a96 <__swsetup_r+0x9a>
 8004a8e:	4621      	mov	r1, r4
 8004a90:	4630      	mov	r0, r6
 8004a92:	f000 fa09 	bl	8004ea8 <__smakebuf_r>
 8004a96:	89a0      	ldrh	r0, [r4, #12]
 8004a98:	f9b4 200c 	ldrsh.w	r2, [r4, #12]
 8004a9c:	f010 0301 	ands.w	r3, r0, #1
 8004aa0:	d00a      	beq.n	8004ab8 <__swsetup_r+0xbc>
 8004aa2:	2300      	movs	r3, #0
 8004aa4:	60a3      	str	r3, [r4, #8]
 8004aa6:	6963      	ldr	r3, [r4, #20]
 8004aa8:	425b      	negs	r3, r3
 8004aaa:	61a3      	str	r3, [r4, #24]
 8004aac:	6923      	ldr	r3, [r4, #16]
 8004aae:	b943      	cbnz	r3, 8004ac2 <__swsetup_r+0xc6>
 8004ab0:	f010 0080 	ands.w	r0, r0, #128	; 0x80
 8004ab4:	d1ba      	bne.n	8004a2c <__swsetup_r+0x30>
 8004ab6:	bd70      	pop	{r4, r5, r6, pc}
 8004ab8:	0781      	lsls	r1, r0, #30
 8004aba:	bf58      	it	pl
 8004abc:	6963      	ldrpl	r3, [r4, #20]
 8004abe:	60a3      	str	r3, [r4, #8]
 8004ac0:	e7f4      	b.n	8004aac <__swsetup_r+0xb0>
 8004ac2:	2000      	movs	r0, #0
 8004ac4:	e7f7      	b.n	8004ab6 <__swsetup_r+0xba>
 8004ac6:	bf00      	nop
 8004ac8:	200000c8 	.word	0x200000c8
 8004acc:	0800604c 	.word	0x0800604c
 8004ad0:	0800606c 	.word	0x0800606c
 8004ad4:	0800602c 	.word	0x0800602c

08004ad8 <abort>:
 8004ad8:	b508      	push	{r3, lr}
 8004ada:	2006      	movs	r0, #6
 8004adc:	f000 fa58 	bl	8004f90 <raise>
 8004ae0:	2001      	movs	r0, #1
 8004ae2:	f7fc f8eb 	bl	8000cbc <_exit>
	...

08004ae8 <__sflush_r>:
 8004ae8:	898a      	ldrh	r2, [r1, #12]
 8004aea:	e92d 41f0 	stmdb	sp!, {r4, r5, r6, r7, r8, lr}
 8004aee:	4605      	mov	r5, r0
 8004af0:	0710      	lsls	r0, r2, #28
 8004af2:	460c      	mov	r4, r1
 8004af4:	d458      	bmi.n	8004ba8 <__sflush_r+0xc0>
 8004af6:	684b      	ldr	r3, [r1, #4]
 8004af8:	2b00      	cmp	r3, #0
 8004afa:	dc05      	bgt.n	8004b08 <__sflush_r+0x20>
 8004afc:	6c0b      	ldr	r3, [r1, #64]	; 0x40
 8004afe:	2b00      	cmp	r3, #0
 8004b00:	dc02      	bgt.n	8004b08 <__sflush_r+0x20>
 8004b02:	2000      	movs	r0, #0
 8004b04:	e8bd 81f0 	ldmia.w	sp!, {r4, r5, r6, r7, r8, pc}
 8004b08:	6ae6      	ldr	r6, [r4, #44]	; 0x2c
 8004b0a:	2e00      	cmp	r6, #0
 8004b0c:	d0f9      	beq.n	8004b02 <__sflush_r+0x1a>
 8004b0e:	2300      	movs	r3, #0
 8004b10:	f412 5280 	ands.w	r2, r2, #4096	; 0x1000
 8004b14:	682f      	ldr	r7, [r5, #0]
 8004b16:	602b      	str	r3, [r5, #0]
 8004b18:	d032      	beq.n	8004b80 <__sflush_r+0x98>
 8004b1a:	6d60      	ldr	r0, [r4, #84]	; 0x54
 8004b1c:	89a3      	ldrh	r3, [r4, #12]
 8004b1e:	075a      	lsls	r2, r3, #29
 8004b20:	d505      	bpl.n	8004b2e <__sflush_r+0x46>
 8004b22:	6863      	ldr	r3, [r4, #4]
 8004b24:	1ac0      	subs	r0, r0, r3
 8004b26:	6b63      	ldr	r3, [r4, #52]	; 0x34
 8004b28:	b10b      	cbz	r3, 8004b2e <__sflush_r+0x46>
 8004b2a:	6c23      	ldr	r3, [r4, #64]	; 0x40
 8004b2c:	1ac0      	subs	r0, r0, r3
 8004b2e:	2300      	movs	r3, #0
 8004b30:	4602      	mov	r2, r0
 8004b32:	6ae6      	ldr	r6, [r4, #44]	; 0x2c
 8004b34:	6a21      	ldr	r1, [r4, #32]
 8004b36:	4628      	mov	r0, r5
 8004b38:	47b0      	blx	r6
 8004b3a:	1c43      	adds	r3, r0, #1
 8004b3c:	89a3      	ldrh	r3, [r4, #12]
 8004b3e:	d106      	bne.n	8004b4e <__sflush_r+0x66>
 8004b40:	6829      	ldr	r1, [r5, #0]
 8004b42:	291d      	cmp	r1, #29
 8004b44:	d82c      	bhi.n	8004ba0 <__sflush_r+0xb8>
 8004b46:	4a2a      	ldr	r2, [pc, #168]	; (8004bf0 <__sflush_r+0x108>)
 8004b48:	40ca      	lsrs	r2, r1
 8004b4a:	07d6      	lsls	r6, r2, #31
 8004b4c:	d528      	bpl.n	8004ba0 <__sflush_r+0xb8>
 8004b4e:	2200      	movs	r2, #0
 8004b50:	6062      	str	r2, [r4, #4]
 8004b52:	04d9      	lsls	r1, r3, #19
 8004b54:	6922      	ldr	r2, [r4, #16]
 8004b56:	6022      	str	r2, [r4, #0]
 8004b58:	d504      	bpl.n	8004b64 <__sflush_r+0x7c>
 8004b5a:	1c42      	adds	r2, r0, #1
 8004b5c:	d101      	bne.n	8004b62 <__sflush_r+0x7a>
 8004b5e:	682b      	ldr	r3, [r5, #0]
 8004b60:	b903      	cbnz	r3, 8004b64 <__sflush_r+0x7c>
 8004b62:	6560      	str	r0, [r4, #84]	; 0x54
 8004b64:	6b61      	ldr	r1, [r4, #52]	; 0x34
 8004b66:	602f      	str	r7, [r5, #0]
 8004b68:	2900      	cmp	r1, #0
 8004b6a:	d0ca      	beq.n	8004b02 <__sflush_r+0x1a>
 8004b6c:	f104 0344 	add.w	r3, r4, #68	; 0x44
 8004b70:	4299      	cmp	r1, r3
 8004b72:	d002      	beq.n	8004b7a <__sflush_r+0x92>
 8004b74:	4628      	mov	r0, r5
 8004b76:	f7ff fb11 	bl	800419c <_free_r>
 8004b7a:	2000      	movs	r0, #0
 8004b7c:	6360      	str	r0, [r4, #52]	; 0x34
 8004b7e:	e7c1      	b.n	8004b04 <__sflush_r+0x1c>
 8004b80:	6a21      	ldr	r1, [r4, #32]
 8004b82:	2301      	movs	r3, #1
 8004b84:	4628      	mov	r0, r5
 8004b86:	47b0      	blx	r6
 8004b88:	1c41      	adds	r1, r0, #1
 8004b8a:	d1c7      	bne.n	8004b1c <__sflush_r+0x34>
 8004b8c:	682b      	ldr	r3, [r5, #0]
 8004b8e:	2b00      	cmp	r3, #0
 8004b90:	d0c4      	beq.n	8004b1c <__sflush_r+0x34>
 8004b92:	2b1d      	cmp	r3, #29
 8004b94:	d001      	beq.n	8004b9a <__sflush_r+0xb2>
 8004b96:	2b16      	cmp	r3, #22
 8004b98:	d101      	bne.n	8004b9e <__sflush_r+0xb6>
 8004b9a:	602f      	str	r7, [r5, #0]
 8004b9c:	e7b1      	b.n	8004b02 <__sflush_r+0x1a>
 8004b9e:	89a3      	ldrh	r3, [r4, #12]
 8004ba0:	f043 0340 	orr.w	r3, r3, #64	; 0x40
 8004ba4:	81a3      	strh	r3, [r4, #12]
 8004ba6:	e7ad      	b.n	8004b04 <__sflush_r+0x1c>
 8004ba8:	690f      	ldr	r7, [r1, #16]
 8004baa:	2f00      	cmp	r7, #0
 8004bac:	d0a9      	beq.n	8004b02 <__sflush_r+0x1a>
 8004bae:	0793      	lsls	r3, r2, #30
 8004bb0:	680e      	ldr	r6, [r1, #0]
 8004bb2:	bf08      	it	eq
 8004bb4:	694b      	ldreq	r3, [r1, #20]
 8004bb6:	600f      	str	r7, [r1, #0]
 8004bb8:	bf18      	it	ne
 8004bba:	2300      	movne	r3, #0
 8004bbc:	eba6 0807 	sub.w	r8, r6, r7
 8004bc0:	608b      	str	r3, [r1, #8]
 8004bc2:	f1b8 0f00 	cmp.w	r8, #0
 8004bc6:	dd9c      	ble.n	8004b02 <__sflush_r+0x1a>
 8004bc8:	6a21      	ldr	r1, [r4, #32]
 8004bca:	6aa6      	ldr	r6, [r4, #40]	; 0x28
 8004bcc:	4643      	mov	r3, r8
 8004bce:	463a      	mov	r2, r7
 8004bd0:	4628      	mov	r0, r5
 8004bd2:	47b0      	blx	r6
 8004bd4:	2800      	cmp	r0, #0
 8004bd6:	dc06      	bgt.n	8004be6 <__sflush_r+0xfe>
 8004bd8:	89a3      	ldrh	r3, [r4, #12]
 8004bda:	f043 0340 	orr.w	r3, r3, #64	; 0x40
 8004bde:	81a3      	strh	r3, [r4, #12]
 8004be0:	f04f 30ff 	mov.w	r0, #4294967295
 8004be4:	e78e      	b.n	8004b04 <__sflush_r+0x1c>
 8004be6:	4407      	add	r7, r0
 8004be8:	eba8 0800 	sub.w	r8, r8, r0
 8004bec:	e7e9      	b.n	8004bc2 <__sflush_r+0xda>
 8004bee:	bf00      	nop
 8004bf0:	20400001 	.word	0x20400001

08004bf4 <_fflush_r>:
 8004bf4:	b538      	push	{r3, r4, r5, lr}
 8004bf6:	690b      	ldr	r3, [r1, #16]
 8004bf8:	4605      	mov	r5, r0
 8004bfa:	460c      	mov	r4, r1
 8004bfc:	b913      	cbnz	r3, 8004c04 <_fflush_r+0x10>
 8004bfe:	2500      	movs	r5, #0
 8004c00:	4628      	mov	r0, r5
 8004c02:	bd38      	pop	{r3, r4, r5, pc}
 8004c04:	b118      	cbz	r0, 8004c0e <_fflush_r+0x1a>
 8004c06:	6983      	ldr	r3, [r0, #24]
 8004c08:	b90b      	cbnz	r3, 8004c0e <_fflush_r+0x1a>
 8004c0a:	f000 f887 	bl	8004d1c <__sinit>
 8004c0e:	4b14      	ldr	r3, [pc, #80]	; (8004c60 <_fflush_r+0x6c>)
 8004c10:	429c      	cmp	r4, r3
 8004c12:	d11b      	bne.n	8004c4c <_fflush_r+0x58>
 8004c14:	686c      	ldr	r4, [r5, #4]
 8004c16:	f9b4 300c 	ldrsh.w	r3, [r4, #12]
 8004c1a:	2b00      	cmp	r3, #0
 8004c1c:	d0ef      	beq.n	8004bfe <_fflush_r+0xa>
 8004c1e:	6e62      	ldr	r2, [r4, #100]	; 0x64
 8004c20:	07d0      	lsls	r0, r2, #31
 8004c22:	d404      	bmi.n	8004c2e <_fflush_r+0x3a>
 8004c24:	0599      	lsls	r1, r3, #22
 8004c26:	d402      	bmi.n	8004c2e <_fflush_r+0x3a>
 8004c28:	6da0      	ldr	r0, [r4, #88]	; 0x58
 8004c2a:	f000 f915 	bl	8004e58 <__retarget_lock_acquire_recursive>
 8004c2e:	4628      	mov	r0, r5
 8004c30:	4621      	mov	r1, r4
 8004c32:	f7ff ff59 	bl	8004ae8 <__sflush_r>
 8004c36:	6e63      	ldr	r3, [r4, #100]	; 0x64
 8004c38:	07da      	lsls	r2, r3, #31
 8004c3a:	4605      	mov	r5, r0
 8004c3c:	d4e0      	bmi.n	8004c00 <_fflush_r+0xc>
 8004c3e:	89a3      	ldrh	r3, [r4, #12]
 8004c40:	059b      	lsls	r3, r3, #22
 8004c42:	d4dd      	bmi.n	8004c00 <_fflush_r+0xc>
 8004c44:	6da0      	ldr	r0, [r4, #88]	; 0x58
 8004c46:	f000 f908 	bl	8004e5a <__retarget_lock_release_recursive>
 8004c4a:	e7d9      	b.n	8004c00 <_fflush_r+0xc>
 8004c4c:	4b05      	ldr	r3, [pc, #20]	; (8004c64 <_fflush_r+0x70>)
 8004c4e:	429c      	cmp	r4, r3
 8004c50:	d101      	bne.n	8004c56 <_fflush_r+0x62>
 8004c52:	68ac      	ldr	r4, [r5, #8]
 8004c54:	e7df      	b.n	8004c16 <_fflush_r+0x22>
 8004c56:	4b04      	ldr	r3, [pc, #16]	; (8004c68 <_fflush_r+0x74>)
 8004c58:	429c      	cmp	r4, r3
 8004c5a:	bf08      	it	eq
 8004c5c:	68ec      	ldreq	r4, [r5, #12]
 8004c5e:	e7da      	b.n	8004c16 <_fflush_r+0x22>
 8004c60:	0800604c 	.word	0x0800604c
 8004c64:	0800606c 	.word	0x0800606c
 8004c68:	0800602c 	.word	0x0800602c

08004c6c <std>:
 8004c6c:	2300      	movs	r3, #0
 8004c6e:	b510      	push	{r4, lr}
 8004c70:	4604      	mov	r4, r0
 8004c72:	e9c0 3300 	strd	r3, r3, [r0]
 8004c76:	e9c0 3304 	strd	r3, r3, [r0, #16]
 8004c7a:	6083      	str	r3, [r0, #8]
 8004c7c:	8181      	strh	r1, [r0, #12]
 8004c7e:	6643      	str	r3, [r0, #100]	; 0x64
 8004c80:	81c2      	strh	r2, [r0, #14]
 8004c82:	6183      	str	r3, [r0, #24]
 8004c84:	4619      	mov	r1, r3
 8004c86:	2208      	movs	r2, #8
 8004c88:	305c      	adds	r0, #92	; 0x5c
 8004c8a:	f7ff f9c5 	bl	8004018 <memset>
 8004c8e:	4b05      	ldr	r3, [pc, #20]	; (8004ca4 <std+0x38>)
 8004c90:	6263      	str	r3, [r4, #36]	; 0x24
 8004c92:	4b05      	ldr	r3, [pc, #20]	; (8004ca8 <std+0x3c>)
 8004c94:	62a3      	str	r3, [r4, #40]	; 0x28
 8004c96:	4b05      	ldr	r3, [pc, #20]	; (8004cac <std+0x40>)
 8004c98:	62e3      	str	r3, [r4, #44]	; 0x2c
 8004c9a:	4b05      	ldr	r3, [pc, #20]	; (8004cb0 <std+0x44>)
 8004c9c:	6224      	str	r4, [r4, #32]
 8004c9e:	6323      	str	r3, [r4, #48]	; 0x30
 8004ca0:	bd10      	pop	{r4, pc}
 8004ca2:	bf00      	nop
 8004ca4:	08004fc9 	.word	0x08004fc9
 8004ca8:	08004feb 	.word	0x08004feb
 8004cac:	08005023 	.word	0x08005023
 8004cb0:	08005047 	.word	0x08005047

08004cb4 <_cleanup_r>:
 8004cb4:	4901      	ldr	r1, [pc, #4]	; (8004cbc <_cleanup_r+0x8>)
 8004cb6:	f000 b8af 	b.w	8004e18 <_fwalk_reent>
 8004cba:	bf00      	nop
 8004cbc:	08004bf5 	.word	0x08004bf5

08004cc0 <__sfmoreglue>:
 8004cc0:	b570      	push	{r4, r5, r6, lr}
 8004cc2:	2268      	movs	r2, #104	; 0x68
 8004cc4:	1e4d      	subs	r5, r1, #1
 8004cc6:	4355      	muls	r5, r2
 8004cc8:	460e      	mov	r6, r1
 8004cca:	f105 0174 	add.w	r1, r5, #116	; 0x74
 8004cce:	f7ff fad1 	bl	8004274 <_malloc_r>
 8004cd2:	4604      	mov	r4, r0
 8004cd4:	b140      	cbz	r0, 8004ce8 <__sfmoreglue+0x28>
 8004cd6:	2100      	movs	r1, #0
 8004cd8:	e9c0 1600 	strd	r1, r6, [r0]
 8004cdc:	300c      	adds	r0, #12
 8004cde:	60a0      	str	r0, [r4, #8]
 8004ce0:	f105 0268 	add.w	r2, r5, #104	; 0x68
 8004ce4:	f7ff f998 	bl	8004018 <memset>
 8004ce8:	4620      	mov	r0, r4
 8004cea:	bd70      	pop	{r4, r5, r6, pc}

08004cec <__sfp_lock_acquire>:
 8004cec:	4801      	ldr	r0, [pc, #4]	; (8004cf4 <__sfp_lock_acquire+0x8>)
 8004cee:	f000 b8b3 	b.w	8004e58 <__retarget_lock_acquire_recursive>
 8004cf2:	bf00      	nop
 8004cf4:	20000161 	.word	0x20000161

08004cf8 <__sfp_lock_release>:
 8004cf8:	4801      	ldr	r0, [pc, #4]	; (8004d00 <__sfp_lock_release+0x8>)
 8004cfa:	f000 b8ae 	b.w	8004e5a <__retarget_lock_release_recursive>
 8004cfe:	bf00      	nop
 8004d00:	20000161 	.word	0x20000161

08004d04 <__sinit_lock_acquire>:
 8004d04:	4801      	ldr	r0, [pc, #4]	; (8004d0c <__sinit_lock_acquire+0x8>)
 8004d06:	f000 b8a7 	b.w	8004e58 <__retarget_lock_acquire_recursive>
 8004d0a:	bf00      	nop
 8004d0c:	20000162 	.word	0x20000162

08004d10 <__sinit_lock_release>:
 8004d10:	4801      	ldr	r0, [pc, #4]	; (8004d18 <__sinit_lock_release+0x8>)
 8004d12:	f000 b8a2 	b.w	8004e5a <__retarget_lock_release_recursive>
 8004d16:	bf00      	nop
 8004d18:	20000162 	.word	0x20000162

08004d1c <__sinit>:
 8004d1c:	b510      	push	{r4, lr}
 8004d1e:	4604      	mov	r4, r0
 8004d20:	f7ff fff0 	bl	8004d04 <__sinit_lock_acquire>
 8004d24:	69a3      	ldr	r3, [r4, #24]
 8004d26:	b11b      	cbz	r3, 8004d30 <__sinit+0x14>
 8004d28:	e8bd 4010 	ldmia.w	sp!, {r4, lr}
 8004d2c:	f7ff bff0 	b.w	8004d10 <__sinit_lock_release>
 8004d30:	e9c4 3312 	strd	r3, r3, [r4, #72]	; 0x48
 8004d34:	6523      	str	r3, [r4, #80]	; 0x50
 8004d36:	4b13      	ldr	r3, [pc, #76]	; (8004d84 <__sinit+0x68>)
 8004d38:	4a13      	ldr	r2, [pc, #76]	; (8004d88 <__sinit+0x6c>)
 8004d3a:	681b      	ldr	r3, [r3, #0]
 8004d3c:	62a2      	str	r2, [r4, #40]	; 0x28
 8004d3e:	42a3      	cmp	r3, r4
 8004d40:	bf04      	itt	eq
 8004d42:	2301      	moveq	r3, #1
 8004d44:	61a3      	streq	r3, [r4, #24]
 8004d46:	4620      	mov	r0, r4
 8004d48:	f000 f820 	bl	8004d8c <__sfp>
 8004d4c:	6060      	str	r0, [r4, #4]
 8004d4e:	4620      	mov	r0, r4
 8004d50:	f000 f81c 	bl	8004d8c <__sfp>
 8004d54:	60a0      	str	r0, [r4, #8]
 8004d56:	4620      	mov	r0, r4
 8004d58:	f000 f818 	bl	8004d8c <__sfp>
 8004d5c:	2200      	movs	r2, #0
 8004d5e:	60e0      	str	r0, [r4, #12]
 8004d60:	2104      	movs	r1, #4
 8004d62:	6860      	ldr	r0, [r4, #4]
 8004d64:	f7ff ff82 	bl	8004c6c <std>
 8004d68:	68a0      	ldr	r0, [r4, #8]
 8004d6a:	2201      	movs	r2, #1
 8004d6c:	2109      	movs	r1, #9
 8004d6e:	f7ff ff7d 	bl	8004c6c <std>
 8004d72:	68e0      	ldr	r0, [r4, #12]
 8004d74:	2202      	movs	r2, #2
 8004d76:	2112      	movs	r1, #18
 8004d78:	f7ff ff78 	bl	8004c6c <std>
 8004d7c:	2301      	movs	r3, #1
 8004d7e:	61a3      	str	r3, [r4, #24]
 8004d80:	e7d2      	b.n	8004d28 <__sinit+0xc>
 8004d82:	bf00      	nop
 8004d84:	08005f20 	.word	0x08005f20
 8004d88:	08004cb5 	.word	0x08004cb5

08004d8c <__sfp>:
 8004d8c:	b5f8      	push	{r3, r4, r5, r6, r7, lr}
 8004d8e:	4607      	mov	r7, r0
 8004d90:	f7ff ffac 	bl	8004cec <__sfp_lock_acquire>
 8004d94:	4b1e      	ldr	r3, [pc, #120]	; (8004e10 <__sfp+0x84>)
 8004d96:	681e      	ldr	r6, [r3, #0]
 8004d98:	69b3      	ldr	r3, [r6, #24]
 8004d9a:	b913      	cbnz	r3, 8004da2 <__sfp+0x16>
 8004d9c:	4630      	mov	r0, r6
 8004d9e:	f7ff ffbd 	bl	8004d1c <__sinit>
 8004da2:	3648      	adds	r6, #72	; 0x48
 8004da4:	e9d6 3401 	ldrd	r3, r4, [r6, #4]
 8004da8:	3b01      	subs	r3, #1
 8004daa:	d503      	bpl.n	8004db4 <__sfp+0x28>
 8004dac:	6833      	ldr	r3, [r6, #0]
 8004dae:	b30b      	cbz	r3, 8004df4 <__sfp+0x68>
 8004db0:	6836      	ldr	r6, [r6, #0]
 8004db2:	e7f7      	b.n	8004da4 <__sfp+0x18>
 8004db4:	f9b4 500c 	ldrsh.w	r5, [r4, #12]
 8004db8:	b9d5      	cbnz	r5, 8004df0 <__sfp+0x64>
 8004dba:	4b16      	ldr	r3, [pc, #88]	; (8004e14 <__sfp+0x88>)
 8004dbc:	60e3      	str	r3, [r4, #12]
 8004dbe:	f104 0058 	add.w	r0, r4, #88	; 0x58
 8004dc2:	6665      	str	r5, [r4, #100]	; 0x64
 8004dc4:	f000 f847 	bl	8004e56 <__retarget_lock_init_recursive>
 8004dc8:	f7ff ff96 	bl	8004cf8 <__sfp_lock_release>
 8004dcc:	e9c4 5501 	strd	r5, r5, [r4, #4]
 8004dd0:	e9c4 5504 	strd	r5, r5, [r4, #16]
 8004dd4:	6025      	str	r5, [r4, #0]
 8004dd6:	61a5      	str	r5, [r4, #24]
 8004dd8:	2208      	movs	r2, #8
 8004dda:	4629      	mov	r1, r5
 8004ddc:	f104 005c 	add.w	r0, r4, #92	; 0x5c
 8004de0:	f7ff f91a 	bl	8004018 <memset>
 8004de4:	e9c4 550d 	strd	r5, r5, [r4, #52]	; 0x34
 8004de8:	e9c4 5512 	strd	r5, r5, [r4, #72]	; 0x48
 8004dec:	4620      	mov	r0, r4
 8004dee:	bdf8      	pop	{r3, r4, r5, r6, r7, pc}
 8004df0:	3468      	adds	r4, #104	; 0x68
 8004df2:	e7d9      	b.n	8004da8 <__sfp+0x1c>
 8004df4:	2104      	movs	r1, #4
 8004df6:	4638      	mov	r0, r7
 8004df8:	f7ff ff62 	bl	8004cc0 <__sfmoreglue>
 8004dfc:	4604      	mov	r4, r0
 8004dfe:	6030      	str	r0, [r6, #0]
 8004e00:	2800      	cmp	r0, #0
 8004e02:	d1d5      	bne.n	8004db0 <__sfp+0x24>
 8004e04:	f7ff ff78 	bl	8004cf8 <__sfp_lock_release>
 8004e08:	230c      	movs	r3, #12
 8004e0a:	603b      	str	r3, [r7, #0]
 8004e0c:	e7ee      	b.n	8004dec <__sfp+0x60>
 8004e0e:	bf00      	nop
 8004e10:	08005f20 	.word	0x08005f20
 8004e14:	ffff0001 	.word	0xffff0001

08004e18 <_fwalk_reent>:
 8004e18:	e92d 43f8 	stmdb	sp!, {r3, r4, r5, r6, r7, r8, r9, lr}
 8004e1c:	4606      	mov	r6, r0
 8004e1e:	4688      	mov	r8, r1
 8004e20:	f100 0448 	add.w	r4, r0, #72	; 0x48
 8004e24:	2700      	movs	r7, #0
 8004e26:	e9d4 9501 	ldrd	r9, r5, [r4, #4]
 8004e2a:	f1b9 0901 	subs.w	r9, r9, #1
 8004e2e:	d505      	bpl.n	8004e3c <_fwalk_reent+0x24>
 8004e30:	6824      	ldr	r4, [r4, #0]
 8004e32:	2c00      	cmp	r4, #0
 8004e34:	d1f7      	bne.n	8004e26 <_fwalk_reent+0xe>
 8004e36:	4638      	mov	r0, r7
 8004e38:	e8bd 83f8 	ldmia.w	sp!, {r3, r4, r5, r6, r7, r8, r9, pc}
 8004e3c:	89ab      	ldrh	r3, [r5, #12]
 8004e3e:	2b01      	cmp	r3, #1
 8004e40:	d907      	bls.n	8004e52 <_fwalk_reent+0x3a>
 8004e42:	f9b5 300e 	ldrsh.w	r3, [r5, #14]
 8004e46:	3301      	adds	r3, #1
 8004e48:	d003      	beq.n	8004e52 <_fwalk_reent+0x3a>
 8004e4a:	4629      	mov	r1, r5
 8004e4c:	4630      	mov	r0, r6
 8004e4e:	47c0      	blx	r8
 8004e50:	4307      	orrs	r7, r0
 8004e52:	3568      	adds	r5, #104	; 0x68
 8004e54:	e7e9      	b.n	8004e2a <_fwalk_reent+0x12>

08004e56 <__retarget_lock_init_recursive>:
 8004e56:	4770      	bx	lr

08004e58 <__retarget_lock_acquire_recursive>:
 8004e58:	4770      	bx	lr

08004e5a <__retarget_lock_release_recursive>:
 8004e5a:	4770      	bx	lr

08004e5c <__swhatbuf_r>:
 8004e5c:	b570      	push	{r4, r5, r6, lr}
 8004e5e:	460e      	mov	r6, r1
 8004e60:	f9b1 100e 	ldrsh.w	r1, [r1, #14]
 8004e64:	2900      	cmp	r1, #0
 8004e66:	b096      	sub	sp, #88	; 0x58
 8004e68:	4614      	mov	r4, r2
 8004e6a:	461d      	mov	r5, r3
 8004e6c:	da08      	bge.n	8004e80 <__swhatbuf_r+0x24>
 8004e6e:	f9b6 300c 	ldrsh.w	r3, [r6, #12]
 8004e72:	2200      	movs	r2, #0
 8004e74:	602a      	str	r2, [r5, #0]
 8004e76:	061a      	lsls	r2, r3, #24
 8004e78:	d410      	bmi.n	8004e9c <__swhatbuf_r+0x40>
 8004e7a:	f44f 6380 	mov.w	r3, #1024	; 0x400
 8004e7e:	e00e      	b.n	8004e9e <__swhatbuf_r+0x42>
 8004e80:	466a      	mov	r2, sp
 8004e82:	f000 f907 	bl	8005094 <_fstat_r>
 8004e86:	2800      	cmp	r0, #0
 8004e88:	dbf1      	blt.n	8004e6e <__swhatbuf_r+0x12>
 8004e8a:	9a01      	ldr	r2, [sp, #4]
 8004e8c:	f402 4270 	and.w	r2, r2, #61440	; 0xf000
 8004e90:	f5a2 5300 	sub.w	r3, r2, #8192	; 0x2000
 8004e94:	425a      	negs	r2, r3
 8004e96:	415a      	adcs	r2, r3
 8004e98:	602a      	str	r2, [r5, #0]
 8004e9a:	e7ee      	b.n	8004e7a <__swhatbuf_r+0x1e>
 8004e9c:	2340      	movs	r3, #64	; 0x40
 8004e9e:	2000      	movs	r0, #0
 8004ea0:	6023      	str	r3, [r4, #0]
 8004ea2:	b016      	add	sp, #88	; 0x58
 8004ea4:	bd70      	pop	{r4, r5, r6, pc}
	...

08004ea8 <__smakebuf_r>:
 8004ea8:	898b      	ldrh	r3, [r1, #12]
 8004eaa:	b573      	push	{r0, r1, r4, r5, r6, lr}
 8004eac:	079d      	lsls	r5, r3, #30
 8004eae:	4606      	mov	r6, r0
 8004eb0:	460c      	mov	r4, r1
 8004eb2:	d507      	bpl.n	8004ec4 <__smakebuf_r+0x1c>
 8004eb4:	f104 0347 	add.w	r3, r4, #71	; 0x47
 8004eb8:	6023      	str	r3, [r4, #0]
 8004eba:	6123      	str	r3, [r4, #16]
 8004ebc:	2301      	movs	r3, #1
 8004ebe:	6163      	str	r3, [r4, #20]
 8004ec0:	b002      	add	sp, #8
 8004ec2:	bd70      	pop	{r4, r5, r6, pc}
 8004ec4:	ab01      	add	r3, sp, #4
 8004ec6:	466a      	mov	r2, sp
 8004ec8:	f7ff ffc8 	bl	8004e5c <__swhatbuf_r>
 8004ecc:	9900      	ldr	r1, [sp, #0]
 8004ece:	4605      	mov	r5, r0
 8004ed0:	4630      	mov	r0, r6
 8004ed2:	f7ff f9cf 	bl	8004274 <_malloc_r>
 8004ed6:	b948      	cbnz	r0, 8004eec <__smakebuf_r+0x44>
 8004ed8:	f9b4 300c 	ldrsh.w	r3, [r4, #12]
 8004edc:	059a      	lsls	r2, r3, #22
 8004ede:	d4ef      	bmi.n	8004ec0 <__smakebuf_r+0x18>
 8004ee0:	f023 0303 	bic.w	r3, r3, #3
 8004ee4:	f043 0302 	orr.w	r3, r3, #2
 8004ee8:	81a3      	strh	r3, [r4, #12]
 8004eea:	e7e3      	b.n	8004eb4 <__smakebuf_r+0xc>
 8004eec:	4b0d      	ldr	r3, [pc, #52]	; (8004f24 <__smakebuf_r+0x7c>)
 8004eee:	62b3      	str	r3, [r6, #40]	; 0x28
 8004ef0:	89a3      	ldrh	r3, [r4, #12]
 8004ef2:	6020      	str	r0, [r4, #0]
 8004ef4:	f043 0380 	orr.w	r3, r3, #128	; 0x80
 8004ef8:	81a3      	strh	r3, [r4, #12]
 8004efa:	9b00      	ldr	r3, [sp, #0]
 8004efc:	6163      	str	r3, [r4, #20]
 8004efe:	9b01      	ldr	r3, [sp, #4]
 8004f00:	6120      	str	r0, [r4, #16]
 8004f02:	b15b      	cbz	r3, 8004f1c <__smakebuf_r+0x74>
 8004f04:	f9b4 100e 	ldrsh.w	r1, [r4, #14]
 8004f08:	4630      	mov	r0, r6
 8004f0a:	f000 f8d5 	bl	80050b8 <_isatty_r>
 8004f0e:	b128      	cbz	r0, 8004f1c <__smakebuf_r+0x74>
 8004f10:	89a3      	ldrh	r3, [r4, #12]
 8004f12:	f023 0303 	bic.w	r3, r3, #3
 8004f16:	f043 0301 	orr.w	r3, r3, #1
 8004f1a:	81a3      	strh	r3, [r4, #12]
 8004f1c:	89a0      	ldrh	r0, [r4, #12]
 8004f1e:	4305      	orrs	r5, r0
 8004f20:	81a5      	strh	r5, [r4, #12]
 8004f22:	e7cd      	b.n	8004ec0 <__smakebuf_r+0x18>
 8004f24:	08004cb5 	.word	0x08004cb5

08004f28 <__malloc_lock>:
 8004f28:	4801      	ldr	r0, [pc, #4]	; (8004f30 <__malloc_lock+0x8>)
 8004f2a:	f7ff bf95 	b.w	8004e58 <__retarget_lock_acquire_recursive>
 8004f2e:	bf00      	nop
 8004f30:	20000160 	.word	0x20000160

08004f34 <__malloc_unlock>:
 8004f34:	4801      	ldr	r0, [pc, #4]	; (8004f3c <__malloc_unlock+0x8>)
 8004f36:	f7ff bf90 	b.w	8004e5a <__retarget_lock_release_recursive>
 8004f3a:	bf00      	nop
 8004f3c:	20000160 	.word	0x20000160

08004f40 <_raise_r>:
 8004f40:	291f      	cmp	r1, #31
 8004f42:	b538      	push	{r3, r4, r5, lr}
 8004f44:	4604      	mov	r4, r0
 8004f46:	460d      	mov	r5, r1
 8004f48:	d904      	bls.n	8004f54 <_raise_r+0x14>
 8004f4a:	2316      	movs	r3, #22
 8004f4c:	6003      	str	r3, [r0, #0]
 8004f4e:	f04f 30ff 	mov.w	r0, #4294967295
 8004f52:	bd38      	pop	{r3, r4, r5, pc}
 8004f54:	6c42      	ldr	r2, [r0, #68]	; 0x44
 8004f56:	b112      	cbz	r2, 8004f5e <_raise_r+0x1e>
 8004f58:	f852 3021 	ldr.w	r3, [r2, r1, lsl #2]
 8004f5c:	b94b      	cbnz	r3, 8004f72 <_raise_r+0x32>
 8004f5e:	4620      	mov	r0, r4
 8004f60:	f000 f830 	bl	8004fc4 <_getpid_r>
 8004f64:	462a      	mov	r2, r5
 8004f66:	4601      	mov	r1, r0
 8004f68:	4620      	mov	r0, r4
 8004f6a:	e8bd 4038 	ldmia.w	sp!, {r3, r4, r5, lr}
 8004f6e:	f000 b817 	b.w	8004fa0 <_kill_r>
 8004f72:	2b01      	cmp	r3, #1
 8004f74:	d00a      	beq.n	8004f8c <_raise_r+0x4c>
 8004f76:	1c59      	adds	r1, r3, #1
 8004f78:	d103      	bne.n	8004f82 <_raise_r+0x42>
 8004f7a:	2316      	movs	r3, #22
 8004f7c:	6003      	str	r3, [r0, #0]
 8004f7e:	2001      	movs	r0, #1
 8004f80:	e7e7      	b.n	8004f52 <_raise_r+0x12>
 8004f82:	2400      	movs	r4, #0
 8004f84:	f842 4025 	str.w	r4, [r2, r5, lsl #2]
 8004f88:	4628      	mov	r0, r5
 8004f8a:	4798      	blx	r3
 8004f8c:	2000      	movs	r0, #0
 8004f8e:	e7e0      	b.n	8004f52 <_raise_r+0x12>

08004f90 <raise>:
 8004f90:	4b02      	ldr	r3, [pc, #8]	; (8004f9c <raise+0xc>)
 8004f92:	4601      	mov	r1, r0
 8004f94:	6818      	ldr	r0, [r3, #0]
 8004f96:	f7ff bfd3 	b.w	8004f40 <_raise_r>
 8004f9a:	bf00      	nop
 8004f9c:	200000c8 	.word	0x200000c8

08004fa0 <_kill_r>:
 8004fa0:	b538      	push	{r3, r4, r5, lr}
 8004fa2:	4d07      	ldr	r5, [pc, #28]	; (8004fc0 <_kill_r+0x20>)
 8004fa4:	2300      	movs	r3, #0
 8004fa6:	4604      	mov	r4, r0
 8004fa8:	4608      	mov	r0, r1
 8004faa:	4611      	mov	r1, r2
 8004fac:	602b      	str	r3, [r5, #0]
 8004fae:	f7fb fe7d 	bl	8000cac <_kill>
 8004fb2:	1c43      	adds	r3, r0, #1
 8004fb4:	d102      	bne.n	8004fbc <_kill_r+0x1c>
 8004fb6:	682b      	ldr	r3, [r5, #0]
 8004fb8:	b103      	cbz	r3, 8004fbc <_kill_r+0x1c>
 8004fba:	6023      	str	r3, [r4, #0]
 8004fbc:	bd38      	pop	{r3, r4, r5, pc}
 8004fbe:	bf00      	nop
 8004fc0:	20000164 	.word	0x20000164

08004fc4 <_getpid_r>:
 8004fc4:	f7fb be70 	b.w	8000ca8 <_getpid>

08004fc8 <__sread>:
 8004fc8:	b510      	push	{r4, lr}
 8004fca:	460c      	mov	r4, r1
 8004fcc:	f9b1 100e 	ldrsh.w	r1, [r1, #14]
 8004fd0:	f000 f894 	bl	80050fc <_read_r>
 8004fd4:	2800      	cmp	r0, #0
 8004fd6:	bfab      	itete	ge
 8004fd8:	6d63      	ldrge	r3, [r4, #84]	; 0x54
 8004fda:	89a3      	ldrhlt	r3, [r4, #12]
 8004fdc:	181b      	addge	r3, r3, r0
 8004fde:	f423 5380 	biclt.w	r3, r3, #4096	; 0x1000
 8004fe2:	bfac      	ite	ge
 8004fe4:	6563      	strge	r3, [r4, #84]	; 0x54
 8004fe6:	81a3      	strhlt	r3, [r4, #12]
 8004fe8:	bd10      	pop	{r4, pc}

08004fea <__swrite>:
 8004fea:	e92d 41f0 	stmdb	sp!, {r4, r5, r6, r7, r8, lr}
 8004fee:	461f      	mov	r7, r3
 8004ff0:	898b      	ldrh	r3, [r1, #12]
 8004ff2:	05db      	lsls	r3, r3, #23
 8004ff4:	4605      	mov	r5, r0
 8004ff6:	460c      	mov	r4, r1
 8004ff8:	4616      	mov	r6, r2
 8004ffa:	d505      	bpl.n	8005008 <__swrite+0x1e>
 8004ffc:	f9b1 100e 	ldrsh.w	r1, [r1, #14]
 8005000:	2302      	movs	r3, #2
 8005002:	2200      	movs	r2, #0
 8005004:	f000 f868 	bl	80050d8 <_lseek_r>
 8005008:	89a3      	ldrh	r3, [r4, #12]
 800500a:	f9b4 100e 	ldrsh.w	r1, [r4, #14]
 800500e:	f423 5380 	bic.w	r3, r3, #4096	; 0x1000
 8005012:	81a3      	strh	r3, [r4, #12]
 8005014:	4632      	mov	r2, r6
 8005016:	463b      	mov	r3, r7
 8005018:	4628      	mov	r0, r5
 800501a:	e8bd 41f0 	ldmia.w	sp!, {r4, r5, r6, r7, r8, lr}
 800501e:	f000 b817 	b.w	8005050 <_write_r>

08005022 <__sseek>:
 8005022:	b510      	push	{r4, lr}
 8005024:	460c      	mov	r4, r1
 8005026:	f9b1 100e 	ldrsh.w	r1, [r1, #14]
 800502a:	f000 f855 	bl	80050d8 <_lseek_r>
 800502e:	1c43      	adds	r3, r0, #1
 8005030:	89a3      	ldrh	r3, [r4, #12]
 8005032:	bf15      	itete	ne
 8005034:	6560      	strne	r0, [r4, #84]	; 0x54
 8005036:	f423 5380 	biceq.w	r3, r3, #4096	; 0x1000
 800503a:	f443 5380 	orrne.w	r3, r3, #4096	; 0x1000
 800503e:	81a3      	strheq	r3, [r4, #12]
 8005040:	bf18      	it	ne
 8005042:	81a3      	strhne	r3, [r4, #12]
 8005044:	bd10      	pop	{r4, pc}

08005046 <__sclose>:
 8005046:	f9b1 100e 	ldrsh.w	r1, [r1, #14]
 800504a:	f000 b813 	b.w	8005074 <_close_r>
	...

08005050 <_write_r>:
 8005050:	b538      	push	{r3, r4, r5, lr}
 8005052:	4d07      	ldr	r5, [pc, #28]	; (8005070 <_write_r+0x20>)
 8005054:	4604      	mov	r4, r0
 8005056:	4608      	mov	r0, r1
 8005058:	4611      	mov	r1, r2
 800505a:	2200      	movs	r2, #0
 800505c:	602a      	str	r2, [r5, #0]
 800505e:	461a      	mov	r2, r3
 8005060:	f7fb fe40 	bl	8000ce4 <_write>
 8005064:	1c43      	adds	r3, r0, #1
 8005066:	d102      	bne.n	800506e <_write_r+0x1e>
 8005068:	682b      	ldr	r3, [r5, #0]
 800506a:	b103      	cbz	r3, 800506e <_write_r+0x1e>
 800506c:	6023      	str	r3, [r4, #0]
 800506e:	bd38      	pop	{r3, r4, r5, pc}
 8005070:	20000164 	.word	0x20000164

08005074 <_close_r>:
 8005074:	b538      	push	{r3, r4, r5, lr}
 8005076:	4d06      	ldr	r5, [pc, #24]	; (8005090 <_close_r+0x1c>)
 8005078:	2300      	movs	r3, #0
 800507a:	4604      	mov	r4, r0
 800507c:	4608      	mov	r0, r1
 800507e:	602b      	str	r3, [r5, #0]
 8005080:	f7fb fe3e 	bl	8000d00 <_close>
 8005084:	1c43      	adds	r3, r0, #1
 8005086:	d102      	bne.n	800508e <_close_r+0x1a>
 8005088:	682b      	ldr	r3, [r5, #0]
 800508a:	b103      	cbz	r3, 800508e <_close_r+0x1a>
 800508c:	6023      	str	r3, [r4, #0]
 800508e:	bd38      	pop	{r3, r4, r5, pc}
 8005090:	20000164 	.word	0x20000164

08005094 <_fstat_r>:
 8005094:	b538      	push	{r3, r4, r5, lr}
 8005096:	4d07      	ldr	r5, [pc, #28]	; (80050b4 <_fstat_r+0x20>)
 8005098:	2300      	movs	r3, #0
 800509a:	4604      	mov	r4, r0
 800509c:	4608      	mov	r0, r1
 800509e:	4611      	mov	r1, r2
 80050a0:	602b      	str	r3, [r5, #0]
 80050a2:	f7fb fe31 	bl	8000d08 <_fstat>
 80050a6:	1c43      	adds	r3, r0, #1
 80050a8:	d102      	bne.n	80050b0 <_fstat_r+0x1c>
 80050aa:	682b      	ldr	r3, [r5, #0]
 80050ac:	b103      	cbz	r3, 80050b0 <_fstat_r+0x1c>
 80050ae:	6023      	str	r3, [r4, #0]
 80050b0:	bd38      	pop	{r3, r4, r5, pc}
 80050b2:	bf00      	nop
 80050b4:	20000164 	.word	0x20000164

080050b8 <_isatty_r>:
 80050b8:	b538      	push	{r3, r4, r5, lr}
 80050ba:	4d06      	ldr	r5, [pc, #24]	; (80050d4 <_isatty_r+0x1c>)
 80050bc:	2300      	movs	r3, #0
 80050be:	4604      	mov	r4, r0
 80050c0:	4608      	mov	r0, r1
 80050c2:	602b      	str	r3, [r5, #0]
 80050c4:	f7fb fe26 	bl	8000d14 <_isatty>
 80050c8:	1c43      	adds	r3, r0, #1
 80050ca:	d102      	bne.n	80050d2 <_isatty_r+0x1a>
 80050cc:	682b      	ldr	r3, [r5, #0]
 80050ce:	b103      	cbz	r3, 80050d2 <_isatty_r+0x1a>
 80050d0:	6023      	str	r3, [r4, #0]
 80050d2:	bd38      	pop	{r3, r4, r5, pc}
 80050d4:	20000164 	.word	0x20000164

080050d8 <_lseek_r>:
 80050d8:	b538      	push	{r3, r4, r5, lr}
 80050da:	4d07      	ldr	r5, [pc, #28]	; (80050f8 <_lseek_r+0x20>)
 80050dc:	4604      	mov	r4, r0
 80050de:	4608      	mov	r0, r1
 80050e0:	4611      	mov	r1, r2
 80050e2:	2200      	movs	r2, #0
 80050e4:	602a      	str	r2, [r5, #0]
 80050e6:	461a      	mov	r2, r3
 80050e8:	f7fb fe16 	bl	8000d18 <_lseek>
 80050ec:	1c43      	adds	r3, r0, #1
 80050ee:	d102      	bne.n	80050f6 <_lseek_r+0x1e>
 80050f0:	682b      	ldr	r3, [r5, #0]
 80050f2:	b103      	cbz	r3, 80050f6 <_lseek_r+0x1e>
 80050f4:	6023      	str	r3, [r4, #0]
 80050f6:	bd38      	pop	{r3, r4, r5, pc}
 80050f8:	20000164 	.word	0x20000164

080050fc <_read_r>:
 80050fc:	b538      	push	{r3, r4, r5, lr}
 80050fe:	4d07      	ldr	r5, [pc, #28]	; (800511c <_read_r+0x20>)
 8005100:	4604      	mov	r4, r0
 8005102:	4608      	mov	r0, r1
 8005104:	4611      	mov	r1, r2
 8005106:	2200      	movs	r2, #0
 8005108:	602a      	str	r2, [r5, #0]
 800510a:	461a      	mov	r2, r3
 800510c:	f7fb fddc 	bl	8000cc8 <_read>
 8005110:	1c43      	adds	r3, r0, #1
 8005112:	d102      	bne.n	800511a <_read_r+0x1e>
 8005114:	682b      	ldr	r3, [r5, #0]
 8005116:	b103      	cbz	r3, 800511a <_read_r+0x1e>
 8005118:	6023      	str	r3, [r4, #0]
 800511a:	bd38      	pop	{r3, r4, r5, pc}
 800511c:	20000164 	.word	0x20000164

08005120 <_init>:
 8005120:	b5f8      	push	{r3, r4, r5, r6, r7, lr}
 8005122:	bf00      	nop
 8005124:	bcf8      	pop	{r3, r4, r5, r6, r7}
 8005126:	bc08      	pop	{r3}
 8005128:	469e      	mov	lr, r3
 800512a:	4770      	bx	lr

0800512c <_fini>:
 800512c:	b5f8      	push	{r3, r4, r5, r6, r7, lr}
 800512e:	bf00      	nop
 8005130:	bcf8      	pop	{r3, r4, r5, r6, r7}
 8005132:	bc08      	pop	{r3}
 8005134:	469e      	mov	lr, r3
 8005136:	4770      	bx	lr
